******************************************************************************
                  TI ARM Linker Unix v15.12.3                  
******************************************************************************
>> Linked Wed May 31 16:24:22 2017

OUTPUT FILE NAME:   <sensortag_reporter.out>
ENTRY POINT SYMBOL: "ResetISR"  address: 0000c875


MEMORY CONFIGURATION

         name            origin    length      used     unused   attr    fill
----------------------  --------  ---------  --------  --------  ----  --------
  FLASH                 00000000   00011000  000106d4  0000092c  R  X
  FLASH_LAST_PAGE       0001f000   00001000  00000a9c  00000564  R  X
  SRAM                  20000000   00004428  000030ca  0000135e  RW X


SEGMENT ALLOCATION MAP

run origin  load origin   length   init length attrs members
----------  ----------- ---------- ----------- ----- -------
00000000    00000000    000106da   000106da    r-x
  00000000    00000000    0000003c   0000003c    r-- .resetVecs
  0000003c    0000003c    000000c4   000000c4    r-x .text.1
  00000100    00000100    0000003c   0000003c    r-- .const:ti_sysbios_knl_Task_Object__PARAMS__C
  0000013c    0000013c    00000034   00000034    r-- .const:ti_sysbios_knl_Mailbox_Object__PARAMS__C
  00000170    00000170    00000030   00000030    r-- .const:ti_sysbios_family_arm_m3_Hwi_Object__PARAMS__C
  000001a0    000001a0    0000002c   0000002c    r-- .const:ti_sysbios_hal_Hwi_Object__PARAMS__C
  000001cc    000001cc    00000028   00000028    r-- .const:ti_sysbios_heaps_HeapMem_Module__FXNS__C
  000001f4    000001f4    00000028   00000028    r-- .const:ti_sysbios_knl_Swi_Object__PARAMS__C
  0000021c    0000021c    00000024   00000024    r-- .const:ti_sysbios_gates_GateHwi_Module__FXNS__C
  00000240    00000240    00000024   00000024    r-- .const:ti_sysbios_gates_GateMutex_Module__FXNS__C
  00000264    00000264    00000024   00000024    r-- .const:ti_sysbios_heaps_HeapMem_Object__PARAMS__C
  00000288    00000288    00000024   00000024    r-- .const:ti_sysbios_knl_Clock_Object__PARAMS__C
  000002ac    000002ac    00000024   00000024    r-- .const:ti_sysbios_knl_Semaphore_Object__PARAMS__C
  000002d0    000002d0    00000020   00000020    r-- .const:ti_sysbios_family_arm_m3_Hwi_Object__DESC__C
  000002f0    000002f0    00000020   00000020    r-- .const:ti_sysbios_gates_GateHwi_Object__DESC__C
  00000310    00000310    00000020   00000020    r-- .const:ti_sysbios_gates_GateMutex_Object__DESC__C
  00000330    00000330    00000020   00000020    r-- .const:ti_sysbios_hal_Hwi_Object__DESC__C
  00000350    00000350    00000020   00000020    r-- .const:ti_sysbios_heaps_HeapMem_Object__DESC__C
  00000370    00000370    00000020   00000020    r-- .const:ti_sysbios_knl_Clock_Object__DESC__C
  00000390    00000390    00000020   00000020    r-- .const:ti_sysbios_knl_Mailbox_Object__DESC__C
  000003b0    000003b0    00000020   00000020    r-- .const:ti_sysbios_knl_Queue_Object__DESC__C
  000003d0    000003d0    00000020   00000020    r-- .const:ti_sysbios_knl_Semaphore_Object__DESC__C
  000003f0    000003f0    00000020   00000020    r-- .const:ti_sysbios_knl_Swi_Object__DESC__C
  00000410    00000410    00000020   00000020    r-- .const:ti_sysbios_knl_Task_Object__DESC__C
  00000430    00000430    00000018   00000018    r-- .const:ti_sysbios_gates_GateHwi_Object__PARAMS__C
  00000448    00000448    00000018   00000018    r-- .const:ti_sysbios_gates_GateMutex_Object__PARAMS__C
  00000460    00000460    00000018   00000018    r-- .const:ti_sysbios_knl_Queue_Object__PARAMS__C
  00000478    00000478    00000008   00000008    r-- .const:ti_sysbios_knl_Idle_funcList__C
  00000480    00000480    00000004   00000004    r-x .text.2
  00000484    00000484    00000004   00000004    r-- .const:ti_sysbios_family_arm_cc26xx_Timer_startupNeeded__C
  00000488    00000488    00000004   00000004    r-- .const:ti_sysbios_family_arm_m3_Hwi_E_alreadyDefined__C
  0000048c    0000048c    00000004   00000004    r-- .const:ti_sysbios_family_arm_m3_Hwi_E_hwiLimitExceeded__C
  00000490    00000490    00000004   00000004    r-- .const:ti_sysbios_family_arm_m3_Hwi_NUM_INTERRUPTS__C
  00000494    00000494    00000004   00000004    r-- .const:ti_sysbios_family_arm_m3_Hwi_Object__count__C
  00000498    00000498    00000004   00000004    r-- .const:ti_sysbios_family_arm_m3_Hwi_Object__table__C
  0000049c    0000049c    00000004   00000004    r-- .const:ti_sysbios_family_arm_m3_Hwi_ccr__C
  000004a0    000004a0    00000004   00000004    r-- .const:ti_sysbios_family_arm_m3_Hwi_excHandlerFunc__C
  000004a4    000004a4    00000004   00000004    r-- .const:ti_sysbios_family_arm_m3_Hwi_nullIsrFunc__C
  000004a8    000004a8    00000004   00000004    r-- .const:ti_sysbios_family_arm_m3_Hwi_numSparseInterrupts__C
  000004ac    000004ac    00000004   00000004    r-- .const:ti_sysbios_family_arm_m3_Hwi_priGroup__C
  000004b0    000004b0    00000004   00000004    r-- .const:ti_sysbios_family_arm_m3_TaskSupport_stackAlignment__C
  000004b4    000004b4    00000004   00000004    r-- .const:ti_sysbios_heaps_HeapMem_E_memory__C
  000004b8    000004b8    00000004   00000004    r-- .const:ti_sysbios_heaps_HeapMem_Module__gateObj__C
  000004bc    000004bc    00000004   00000004    r-- .const:ti_sysbios_heaps_HeapMem_Object__count__C
  000004c0    000004c0    00000004   00000004    r-- .const:ti_sysbios_heaps_HeapMem_Object__table__C
  000004c4    000004c4    00000004   00000004    r-- .const:ti_sysbios_heaps_HeapMem_reqAlign__C
  000004c8    000004c8    00000004   00000004    r-- .const:ti_sysbios_knl_Clock_serviceMargin__C
  000004cc    000004cc    00000004   00000004    r-- .const:ti_sysbios_knl_Mailbox_Object__count__C
  000004d0    000004d0    00000004   00000004    r-- .const:ti_sysbios_knl_Mailbox_Object__table__C
  000004d4    000004d4    00000004   00000004    r-- .const:ti_sysbios_knl_Queue_Object__count__C
  000004d8    000004d8    00000004   00000004    r-- .const:ti_sysbios_knl_Queue_Object__table__C
  000004dc    000004dc    00000004   00000004    r-- .const:ti_sysbios_knl_Swi_Object__count__C
  000004e0    000004e0    00000004   00000004    r-- .const:ti_sysbios_knl_Swi_Object__table__C
  000004e4    000004e4    00000004   00000004    r-- .const:ti_sysbios_knl_Swi_numPriorities__C
  000004e8    000004e8    00000004   00000004    r-- .const:ti_sysbios_knl_Task_Object__count__C
  000004ec    000004ec    00000004   00000004    r-- .const:ti_sysbios_knl_Task_Object__table__C
  000004f0    000004f0    00000004   00000004    r-- .const:ti_sysbios_knl_Task_allBlockedFunc__C
  000004f4    000004f4    00000004   00000004    r-- .const:ti_sysbios_knl_Task_defaultStackHeap__C
  000004f8    000004f8    00000004   00000004    r-- .const:ti_sysbios_knl_Task_defaultStackSize__C
  000004fc    000004fc    00000004   00000004    r-- .const:ti_sysbios_knl_Task_numConstructedTasks__C
  00000500    00000500    00000002   00000002    r-x .text.3
  00000502    00000502    00000002   00000002    r-- .const:ti_sysbios_family_arm_cc26xx_Timer_Module__id__C
  00000504    00000504    00000002   00000002    r-- .const:ti_sysbios_family_arm_cc26xx_TimestampProvider_useClockTimer__C
  00000506    00000506    00000002   00000002    r-- .const:ti_sysbios_family_arm_m3_Hwi_Module__id__C
  00000508    00000508    00000002   00000002    r-- .const:ti_sysbios_gates_GateHwi_Module__id__C
  0000050a    0000050a    00000002   00000002    r-- .const:ti_sysbios_gates_GateMutex_Module__id__C
  0000050c    0000050c    00000002   00000002    r-- .const:ti_sysbios_heaps_HeapMem_Module__id__C
  0000050e    0000050e    00000002   00000002    r-- .const:ti_sysbios_knl_Task_initStackFlag__C
  00000510    00000510    00000001   00000001    r-- .const:ti_sysbios_knl_Clock_tickMode__C
  00000514    00000514    00000008   00000008    r-- .const:xdc_runtime_Startup_firstFxns__C
  0000051c    0000051c    00000008   00000008    r-- .const:xdc_runtime_Startup_lastFxns__C
  00000524    00000524    00000004   00000004    r-- .const:xdc_runtime_Assert_E_assertFailed__C
  00000528    00000528    00000004   00000004    r-- .const:xdc_runtime_Error_E_memory__C
  0000052c    0000052c    00000004   00000004    r-- .const:xdc_runtime_Error_policyFxn__C
  00000530    00000530    00000004   00000004    r-- .const:xdc_runtime_IGateProvider_Interface__BASE__C
  00000534    00000534    00000004   00000004    r-- .const:xdc_runtime_IHeap_Interface__BASE__C
  00000538    00000538    00000004   00000004    r-- .const:xdc_runtime_IModule_Interface__BASE__C
  0000053c    0000053c    00000004   00000004    r-- .const:xdc_runtime_Main_Module__diagsEnabled__C
  00000540    00000540    00000004   00000004    r-- .const:xdc_runtime_Main_Module__diagsIncluded__C
  00000544    00000544    00000004   00000004    r-- .const:xdc_runtime_Main_Module__diagsMask__C
  00000548    00000548    00000004   00000004    r-- .const:xdc_runtime_Memory_defaultHeapInstance__C
  0000054c    0000054c    00000004   00000004    r-- .const:xdc_runtime_Startup_execImpl__C
  00000550    00000550    00000004   00000004    r-- .const:xdc_runtime_Startup_maxPasses__C
  00000554    00000554    00000004   00000004    r-- .const:xdc_runtime_Startup_sfxnRts__C
  00000558    00000558    00000004   00000004    r-- .const:xdc_runtime_Startup_sfxnTab__C
  0000055c    0000055c    00000004   00000004    r-- .const:xdc_runtime_Startup_startModsFxn__C
  00000560    00000560    00000004   00000004    r-- .const:xdc_runtime_SysCallback_abortFxn__C
  00000564    00000564    00000004   00000004    r-- .const:xdc_runtime_SysCallback_exitFxn__C
  00000568    00000568    00000004   00000004    r-- .const:xdc_runtime_System_abortFxn__C
  0000056c    0000056c    00000004   00000004    r-- .const:xdc_runtime_System_exitFxn__C
  00000570    00000570    00000004   00000004    r-- .const:xdc_runtime_System_maxAtexitHandlers__C
  00000574    00000574    00000004   00000004    r-- .const:xdc_runtime_Text_charTab__C
  00000578    00000578    00000004   00000004    r-- .const:xdc_runtime_Text_nameEmpty__C
  0000057c    0000057c    00000004   00000004    r-- .const:xdc_runtime_Text_nameStatic__C
  00000580    00000580    00000004   00000004    r-- .const:xdc_runtime_Text_nameUnknown__C
  00000584    00000584    00000002   00000002    r-- .const:xdc_runtime_Main_Module__id__C
  00000586    00000586    00000002   00000002    r-- .const:xdc_runtime_Memory_Module__id__C
  00000588    00000588    00000002   00000002    r-- .const:xdc_runtime_Text_charCnt__C
  0000058a    0000058a    00000002   00000002    r-- .const:xdc_runtime_Text_isLoaded__C
  0000058c    0000058c    00000001   00000001    r-- .const:xdc_runtime_Error_policy__C
  00000590    00000590    00000004   00000004    r-- .const:ti_sysbios_rom_ROM_AONRTCChannelEnable
  00000594    00000594    00000004   00000004    r-- .const:ti_sysbios_rom_ROM_AONRTCCompareValueSet
  00000598    00000598    00000004   00000004    r-- .const:ti_sysbios_rom_ROM_AONRTCCurrentCompareValueGet
  0000059c    0000059c    00000004   00000004    r-- .const:ti_sysbios_rom_ROM_AONRTCEventClear
  000005a0    000005a0    00000004   00000004    r-- .const:ti_sysbios_rom_ROM_ti_sysbios_family_arm_cc26xx_Timer_getCount64__E
  000005a4    000005a4    00000004   00000004    r-- .const:ti_sysbios_rom_ROM_ti_sysbios_family_arm_cc26xx_Timer_getCurrentTick__E
  000005a8    000005a8    00000004   00000004    r-- .const:ti_sysbios_rom_ROM_ti_sysbios_family_arm_cc26xx_Timer_getMaxTicks__E
  000005ac    000005ac    00000004   00000004    r-- .const:ti_sysbios_rom_ROM_ti_sysbios_family_arm_cc26xx_Timer_initDevice__I
  000005b0    000005b0    00000004   00000004    r-- .const:ti_sysbios_rom_ROM_ti_sysbios_family_arm_cc26xx_Timer_setNextTick__E
  000005b4    000005b4    00000004   00000004    r-- .const:ti_sysbios_rom_ROM_ti_sysbios_family_arm_cc26xx_Timer_setThreshold__I
  000005b8    000005b8    00000004   00000004    r-- .const:ti_sysbios_rom_ROM_ti_sysbios_family_arm_cc26xx_Timer_start__E
  000005bc    000005bc    00000004   00000004    r-- .const:ti_sysbios_rom_ROM_ti_sysbios_family_arm_cc26xx_TimestampProvider_get32__E
  000005c0    000005c0    00000004   00000004    r-- .const:ti_sysbios_rom_ROM_xdc_runtime_Startup_getState__I
  000005c4    000005c4    00000004   00000004    r-- .const:ti_sysbios_rom_ROM_xdc_runtime_System_SupportProxy_abort__E
  000005c8    000005c8    00000004   00000004    r-- .const:ti_sysbios_rom_ROM_xdc_runtime_System_SupportProxy_exit__E
  000005cc    000005cc    00000004   00000004    r-- .const:ti_sysbios_gates_GateMutex_Instance_State_sem__O
  000005d0    000005d0    00000004   00000004    r-- .const:ti_sysbios_knl_Clock_Module_State_clockQ__O
  000005d4    000005d4    00000004   00000004    r-- .const:ti_sysbios_knl_Mailbox_Instance_State_dataQue__O
  000005d8    000005d8    00000004   00000004    r-- .const:ti_sysbios_knl_Mailbox_Instance_State_dataSem__O
  000005dc    000005dc    00000004   00000004    r-- .const:ti_sysbios_knl_Mailbox_Instance_State_freeQue__O
  000005e0    000005e0    00000004   00000004    r-- .const:ti_sysbios_knl_Mailbox_Instance_State_freeSem__O
  000005e4    000005e4    00000004   00000004    r-- .const:ti_sysbios_knl_Semaphore_Instance_State_pendQ__O
  000005e8    000005e8    00000004   00000004    r-- .const:ti_sysbios_knl_Task_Module_State_inactiveQ__O
  000005ec    000005ec    0000fa4c   0000fa4c    r-x .text.4
  00010038    00010038    000006a2   000006a2    r-- .const
0001f000    0001f000    00000a44   00000a44    r--
  0001f000    0001f000    00000a44   00000a44    r-- .cinit
0001ffa8    0001ffa8    00000058   00000058    r--
  0001ffa8    0001ffa8    00000058   00000058    r-- .ccfg
20000100    20000100    00000104   00000000    rw-
  20000100    20000100    00000044   00000000    rw- .data:ti_sysbios_knl_Task_Module__state__V
  20000144    20000144    00000034   00000000    rw- .data:ti_sysbios_family_arm_m3_Hwi_Module__state__V
  20000178    20000178    0000002c   00000000    rw- .data:ti_sysbios_knl_Clock_Module__state__V
  200001a4    200001a4    00000024   00000000    rw- .data:ti_sysbios_BIOS_Module__state__V
  200001c8    200001c8    0000001c   00000000    rw- .data:ti_sysbios_knl_Swi_Module__state__V
  200001e4    200001e4    00000008   00000000    rw- .data:ti_sysbios_family_arm_cc26xx_Timer_Module__state__V
  200001ec    200001ec    00000004   00000000    rw- .data:ti_sysbios_family_arm_cc26xx_TimestampProvider_Module__state__V
  200001f0    200001f0    00000008   00000000    rw- .data:xdc_runtime_Startup_Module__state__V
  200001f8    200001f8    00000008   00000000    rw- .data:xdc_runtime_System_Module__state__V
  20000200    20000200    00000004   00000000    rw- .data:xdc_runtime_Memory_Module__state__V
20000430    20000430    00000010   00000000    rw-
  20000430    20000430    00000010   00000000    rw- .TI.bound:dmaSpi0RxControlTableEntry
20000440    20000440    00000010   00000000    rw-
  20000440    20000440    00000010   00000000    rw- .TI.bound:dmaSpi0TxControlTableEntry
20000500    20000500    00000010   00000000    rw-
  20000500    20000500    00000010   00000000    rw- .TI.bound:dmaSpi1RxControlTableEntry
20000510    20000510    00002ace   00000000    rw-
  20000510    20000510    00000010   00000000    rw- .TI.bound:dmaSpi1TxControlTableEntry
  20000520    20000520    00000ab0   00000000    rw- .data
  20000fd0    20000fd0    0000200e   00000000    rw- .bss
20004028    20004028    00000400   00000000    rw-
  20004028    20004028    00000400   00000000    rw- .stack


SECTION ALLOCATION MAP

 output                                  attributes/
section   page    origin      length       input sections
--------  ----  ----------  ----------   ----------------
.const:ti_sysbios_knl_Task_Object__PARAMS__C 
*          0    00000100    0000003c     
                  00000100    0000003c     app_ble_pem3.oem3 (.const:ti_sysbios_knl_Task_Object__PARAMS__C)

.const:ti_sysbios_knl_Mailbox_Object__PARAMS__C 
*          0    0000013c    00000034     
                  0000013c    00000034     app_ble_pem3.oem3 (.const:ti_sysbios_knl_Mailbox_Object__PARAMS__C)

.const:ti_sysbios_family_arm_m3_Hwi_Object__PARAMS__C 
*          0    00000170    00000030     
                  00000170    00000030     app_ble_pem3.oem3 (.const:ti_sysbios_family_arm_m3_Hwi_Object__PARAMS__C)

.const:ti_sysbios_hal_Hwi_Object__PARAMS__C 
*          0    000001a0    0000002c     
                  000001a0    0000002c     app_ble_pem3.oem3 (.const:ti_sysbios_hal_Hwi_Object__PARAMS__C)

.const:ti_sysbios_heaps_HeapMem_Module__FXNS__C 
*          0    000001cc    00000028     
                  000001cc    00000028     app_ble_pem3.oem3 (.const:ti_sysbios_heaps_HeapMem_Module__FXNS__C)

.const:ti_sysbios_knl_Swi_Object__PARAMS__C 
*          0    000001f4    00000028     
                  000001f4    00000028     app_ble_pem3.oem3 (.const:ti_sysbios_knl_Swi_Object__PARAMS__C)

.const:ti_sysbios_gates_GateHwi_Module__FXNS__C 
*          0    0000021c    00000024     
                  0000021c    00000024     app_ble_pem3.oem3 (.const:ti_sysbios_gates_GateHwi_Module__FXNS__C)

.const:ti_sysbios_gates_GateMutex_Module__FXNS__C 
*          0    00000240    00000024     
                  00000240    00000024     app_ble_pem3.oem3 (.const:ti_sysbios_gates_GateMutex_Module__FXNS__C)

.const:ti_sysbios_heaps_HeapMem_Object__PARAMS__C 
*          0    00000264    00000024     
                  00000264    00000024     app_ble_pem3.oem3 (.const:ti_sysbios_heaps_HeapMem_Object__PARAMS__C)

.const:ti_sysbios_knl_Clock_Object__PARAMS__C 
*          0    00000288    00000024     
                  00000288    00000024     app_ble_pem3.oem3 (.const:ti_sysbios_knl_Clock_Object__PARAMS__C)

.const:ti_sysbios_knl_Semaphore_Object__PARAMS__C 
*          0    000002ac    00000024     
                  000002ac    00000024     app_ble_pem3.oem3 (.const:ti_sysbios_knl_Semaphore_Object__PARAMS__C)

.const:ti_sysbios_family_arm_m3_Hwi_Object__DESC__C 
*          0    000002d0    00000020     
                  000002d0    00000020     app_ble_pem3.oem3 (.const:ti_sysbios_family_arm_m3_Hwi_Object__DESC__C)

.const:ti_sysbios_gates_GateHwi_Object__DESC__C 
*          0    000002f0    00000020     
                  000002f0    00000020     app_ble_pem3.oem3 (.const:ti_sysbios_gates_GateHwi_Object__DESC__C)

.const:ti_sysbios_gates_GateMutex_Object__DESC__C 
*          0    00000310    00000020     
                  00000310    00000020     app_ble_pem3.oem3 (.const:ti_sysbios_gates_GateMutex_Object__DESC__C)

.const:ti_sysbios_hal_Hwi_Object__DESC__C 
*          0    00000330    00000020     
                  00000330    00000020     app_ble_pem3.oem3 (.const:ti_sysbios_hal_Hwi_Object__DESC__C)

.const:ti_sysbios_heaps_HeapMem_Object__DESC__C 
*          0    00000350    00000020     
                  00000350    00000020     app_ble_pem3.oem3 (.const:ti_sysbios_heaps_HeapMem_Object__DESC__C)

.const:ti_sysbios_knl_Clock_Object__DESC__C 
*          0    00000370    00000020     
                  00000370    00000020     app_ble_pem3.oem3 (.const:ti_sysbios_knl_Clock_Object__DESC__C)

.const:ti_sysbios_knl_Mailbox_Object__DESC__C 
*          0    00000390    00000020     
                  00000390    00000020     app_ble_pem3.oem3 (.const:ti_sysbios_knl_Mailbox_Object__DESC__C)

.const:ti_sysbios_knl_Queue_Object__DESC__C 
*          0    000003b0    00000020     
                  000003b0    00000020     app_ble_pem3.oem3 (.const:ti_sysbios_knl_Queue_Object__DESC__C)

.const:ti_sysbios_knl_Semaphore_Object__DESC__C 
*          0    000003d0    00000020     
                  000003d0    00000020     app_ble_pem3.oem3 (.const:ti_sysbios_knl_Semaphore_Object__DESC__C)

.const:ti_sysbios_knl_Swi_Object__DESC__C 
*          0    000003f0    00000020     
                  000003f0    00000020     app_ble_pem3.oem3 (.const:ti_sysbios_knl_Swi_Object__DESC__C)

.const:ti_sysbios_knl_Task_Object__DESC__C 
*          0    00000410    00000020     
                  00000410    00000020     app_ble_pem3.oem3 (.const:ti_sysbios_knl_Task_Object__DESC__C)

.const:ti_sysbios_gates_GateHwi_Object__PARAMS__C 
*          0    00000430    00000018     
                  00000430    00000018     app_ble_pem3.oem3 (.const:ti_sysbios_gates_GateHwi_Object__PARAMS__C)

.const:ti_sysbios_gates_GateMutex_Object__PARAMS__C 
*          0    00000448    00000018     
                  00000448    00000018     app_ble_pem3.oem3 (.const:ti_sysbios_gates_GateMutex_Object__PARAMS__C)

.const:ti_sysbios_knl_Queue_Object__PARAMS__C 
*          0    00000460    00000018     
                  00000460    00000018     app_ble_pem3.oem3 (.const:ti_sysbios_knl_Queue_Object__PARAMS__C)

.const:ti_sysbios_knl_Idle_funcList__C 
*          0    00000478    00000008     
                  00000478    00000008     app_ble_pem3.oem3 (.const:ti_sysbios_knl_Idle_funcList__C)

.const:ti_sysbios_family_arm_cc26xx_Timer_startupNeeded__C 
*          0    00000484    00000004     
                  00000484    00000004     app_ble_pem3.oem3 (.const:ti_sysbios_family_arm_cc26xx_Timer_startupNeeded__C)

.const:ti_sysbios_family_arm_m3_Hwi_E_alreadyDefined__C 
*          0    00000488    00000004     
                  00000488    00000004     app_ble_pem3.oem3 (.const:ti_sysbios_family_arm_m3_Hwi_E_alreadyDefined__C)

.const:ti_sysbios_family_arm_m3_Hwi_E_hwiLimitExceeded__C 
*          0    0000048c    00000004     
                  0000048c    00000004     app_ble_pem3.oem3 (.const:ti_sysbios_family_arm_m3_Hwi_E_hwiLimitExceeded__C)

.const:ti_sysbios_family_arm_m3_Hwi_NUM_INTERRUPTS__C 
*          0    00000490    00000004     
                  00000490    00000004     app_ble_pem3.oem3 (.const:ti_sysbios_family_arm_m3_Hwi_NUM_INTERRUPTS__C)

.const:ti_sysbios_family_arm_m3_Hwi_Object__count__C 
*          0    00000494    00000004     
                  00000494    00000004     app_ble_pem3.oem3 (.const:ti_sysbios_family_arm_m3_Hwi_Object__count__C)

.const:ti_sysbios_family_arm_m3_Hwi_Object__table__C 
*          0    00000498    00000004     
                  00000498    00000004     app_ble_pem3.oem3 (.const:ti_sysbios_family_arm_m3_Hwi_Object__table__C)

.const:ti_sysbios_family_arm_m3_Hwi_ccr__C 
*          0    0000049c    00000004     
                  0000049c    00000004     app_ble_pem3.oem3 (.const:ti_sysbios_family_arm_m3_Hwi_ccr__C)

.const:ti_sysbios_family_arm_m3_Hwi_excHandlerFunc__C 
*          0    000004a0    00000004     
                  000004a0    00000004     app_ble_pem3.oem3 (.const:ti_sysbios_family_arm_m3_Hwi_excHandlerFunc__C)

.const:ti_sysbios_family_arm_m3_Hwi_nullIsrFunc__C 
*          0    000004a4    00000004     
                  000004a4    00000004     app_ble_pem3.oem3 (.const:ti_sysbios_family_arm_m3_Hwi_nullIsrFunc__C)

.const:ti_sysbios_family_arm_m3_Hwi_numSparseInterrupts__C 
*          0    000004a8    00000004     
                  000004a8    00000004     app_ble_pem3.oem3 (.const:ti_sysbios_family_arm_m3_Hwi_numSparseInterrupts__C)

.const:ti_sysbios_family_arm_m3_Hwi_priGroup__C 
*          0    000004ac    00000004     
                  000004ac    00000004     app_ble_pem3.oem3 (.const:ti_sysbios_family_arm_m3_Hwi_priGroup__C)

.const:ti_sysbios_family_arm_m3_TaskSupport_stackAlignment__C 
*          0    000004b0    00000004     
                  000004b0    00000004     app_ble_pem3.oem3 (.const:ti_sysbios_family_arm_m3_TaskSupport_stackAlignment__C)

.const:ti_sysbios_heaps_HeapMem_E_memory__C 
*          0    000004b4    00000004     
                  000004b4    00000004     app_ble_pem3.oem3 (.const:ti_sysbios_heaps_HeapMem_E_memory__C)

.const:ti_sysbios_heaps_HeapMem_Module__gateObj__C 
*          0    000004b8    00000004     
                  000004b8    00000004     app_ble_pem3.oem3 (.const:ti_sysbios_heaps_HeapMem_Module__gateObj__C)

.const:ti_sysbios_heaps_HeapMem_Object__count__C 
*          0    000004bc    00000004     
                  000004bc    00000004     app_ble_pem3.oem3 (.const:ti_sysbios_heaps_HeapMem_Object__count__C)

.const:ti_sysbios_heaps_HeapMem_Object__table__C 
*          0    000004c0    00000004     
                  000004c0    00000004     app_ble_pem3.oem3 (.const:ti_sysbios_heaps_HeapMem_Object__table__C)

.const:ti_sysbios_heaps_HeapMem_reqAlign__C 
*          0    000004c4    00000004     
                  000004c4    00000004     app_ble_pem3.oem3 (.const:ti_sysbios_heaps_HeapMem_reqAlign__C)

.const:ti_sysbios_knl_Clock_serviceMargin__C 
*          0    000004c8    00000004     
                  000004c8    00000004     app_ble_pem3.oem3 (.const:ti_sysbios_knl_Clock_serviceMargin__C)

.const:ti_sysbios_knl_Mailbox_Object__count__C 
*          0    000004cc    00000004     
                  000004cc    00000004     app_ble_pem3.oem3 (.const:ti_sysbios_knl_Mailbox_Object__count__C)

.const:ti_sysbios_knl_Mailbox_Object__table__C 
*          0    000004d0    00000004     
                  000004d0    00000004     app_ble_pem3.oem3 (.const:ti_sysbios_knl_Mailbox_Object__table__C)

.const:ti_sysbios_knl_Queue_Object__count__C 
*          0    000004d4    00000004     
                  000004d4    00000004     app_ble_pem3.oem3 (.const:ti_sysbios_knl_Queue_Object__count__C)

.const:ti_sysbios_knl_Queue_Object__table__C 
*          0    000004d8    00000004     
                  000004d8    00000004     app_ble_pem3.oem3 (.const:ti_sysbios_knl_Queue_Object__table__C)

.const:ti_sysbios_knl_Swi_Object__count__C 
*          0    000004dc    00000004     
                  000004dc    00000004     app_ble_pem3.oem3 (.const:ti_sysbios_knl_Swi_Object__count__C)

.const:ti_sysbios_knl_Swi_Object__table__C 
*          0    000004e0    00000004     
                  000004e0    00000004     app_ble_pem3.oem3 (.const:ti_sysbios_knl_Swi_Object__table__C)

.const:ti_sysbios_knl_Swi_numPriorities__C 
*          0    000004e4    00000004     
                  000004e4    00000004     app_ble_pem3.oem3 (.const:ti_sysbios_knl_Swi_numPriorities__C)

.const:ti_sysbios_knl_Task_Object__count__C 
*          0    000004e8    00000004     
                  000004e8    00000004     app_ble_pem3.oem3 (.const:ti_sysbios_knl_Task_Object__count__C)

.const:ti_sysbios_knl_Task_Object__table__C 
*          0    000004ec    00000004     
                  000004ec    00000004     app_ble_pem3.oem3 (.const:ti_sysbios_knl_Task_Object__table__C)

.const:ti_sysbios_knl_Task_allBlockedFunc__C 
*          0    000004f0    00000004     
                  000004f0    00000004     app_ble_pem3.oem3 (.const:ti_sysbios_knl_Task_allBlockedFunc__C)

.const:ti_sysbios_knl_Task_defaultStackHeap__C 
*          0    000004f4    00000004     
                  000004f4    00000004     app_ble_pem3.oem3 (.const:ti_sysbios_knl_Task_defaultStackHeap__C)

.const:ti_sysbios_knl_Task_defaultStackSize__C 
*          0    000004f8    00000004     
                  000004f8    00000004     app_ble_pem3.oem3 (.const:ti_sysbios_knl_Task_defaultStackSize__C)

.const:ti_sysbios_knl_Task_numConstructedTasks__C 
*          0    000004fc    00000004     
                  000004fc    00000004     app_ble_pem3.oem3 (.const:ti_sysbios_knl_Task_numConstructedTasks__C)

.const:ti_sysbios_family_arm_cc26xx_Timer_Module__id__C 
*          0    00000502    00000002     
                  00000502    00000002     app_ble_pem3.oem3 (.const:ti_sysbios_family_arm_cc26xx_Timer_Module__id__C)

.const:ti_sysbios_family_arm_cc26xx_TimestampProvider_useClockTimer__C 
*          0    00000504    00000002     
                  00000504    00000002     app_ble_pem3.oem3 (.const:ti_sysbios_family_arm_cc26xx_TimestampProvider_useClockTimer__C)

.const:ti_sysbios_family_arm_m3_Hwi_Module__id__C 
*          0    00000506    00000002     
                  00000506    00000002     app_ble_pem3.oem3 (.const:ti_sysbios_family_arm_m3_Hwi_Module__id__C)

.const:ti_sysbios_gates_GateHwi_Module__id__C 
*          0    00000508    00000002     
                  00000508    00000002     app_ble_pem3.oem3 (.const:ti_sysbios_gates_GateHwi_Module__id__C)

.const:ti_sysbios_gates_GateMutex_Module__id__C 
*          0    0000050a    00000002     
                  0000050a    00000002     app_ble_pem3.oem3 (.const:ti_sysbios_gates_GateMutex_Module__id__C)

.const:ti_sysbios_heaps_HeapMem_Module__id__C 
*          0    0000050c    00000002     
                  0000050c    00000002     app_ble_pem3.oem3 (.const:ti_sysbios_heaps_HeapMem_Module__id__C)

.const:ti_sysbios_knl_Task_initStackFlag__C 
*          0    0000050e    00000002     
                  0000050e    00000002     app_ble_pem3.oem3 (.const:ti_sysbios_knl_Task_initStackFlag__C)

.const:ti_sysbios_knl_Clock_tickMode__C 
*          0    00000510    00000001     
                  00000510    00000001     app_ble_pem3.oem3 (.const:ti_sysbios_knl_Clock_tickMode__C)

.const:xdc_runtime_Startup_firstFxns__C 
*          0    00000514    00000008     
                  00000514    00000008     app_ble_pem3.oem3 (.const:xdc_runtime_Startup_firstFxns__C)

.const:xdc_runtime_Startup_lastFxns__C 
*          0    0000051c    00000008     
                  0000051c    00000008     app_ble_pem3.oem3 (.const:xdc_runtime_Startup_lastFxns__C)

.const:xdc_runtime_Assert_E_assertFailed__C 
*          0    00000524    00000004     
                  00000524    00000004     app_ble_pem3.oem3 (.const:xdc_runtime_Assert_E_assertFailed__C)

.const:xdc_runtime_Error_E_memory__C 
*          0    00000528    00000004     
                  00000528    00000004     app_ble_pem3.oem3 (.const:xdc_runtime_Error_E_memory__C)

.const:xdc_runtime_Error_policyFxn__C 
*          0    0000052c    00000004     
                  0000052c    00000004     app_ble_pem3.oem3 (.const:xdc_runtime_Error_policyFxn__C)

.const:xdc_runtime_IGateProvider_Interface__BASE__C 
*          0    00000530    00000004     
                  00000530    00000004     app_ble_pem3.oem3 (.const:xdc_runtime_IGateProvider_Interface__BASE__C)

.const:xdc_runtime_IHeap_Interface__BASE__C 
*          0    00000534    00000004     
                  00000534    00000004     app_ble_pem3.oem3 (.const:xdc_runtime_IHeap_Interface__BASE__C)

.const:xdc_runtime_IModule_Interface__BASE__C 
*          0    00000538    00000004     
                  00000538    00000004     app_ble_pem3.oem3 (.const:xdc_runtime_IModule_Interface__BASE__C)

.const:xdc_runtime_Main_Module__diagsEnabled__C 
*          0    0000053c    00000004     
                  0000053c    00000004     app_ble_pem3.oem3 (.const:xdc_runtime_Main_Module__diagsEnabled__C)

.const:xdc_runtime_Main_Module__diagsIncluded__C 
*          0    00000540    00000004     
                  00000540    00000004     app_ble_pem3.oem3 (.const:xdc_runtime_Main_Module__diagsIncluded__C)

.const:xdc_runtime_Main_Module__diagsMask__C 
*          0    00000544    00000004     
                  00000544    00000004     app_ble_pem3.oem3 (.const:xdc_runtime_Main_Module__diagsMask__C)

.const:xdc_runtime_Memory_defaultHeapInstance__C 
*          0    00000548    00000004     
                  00000548    00000004     app_ble_pem3.oem3 (.const:xdc_runtime_Memory_defaultHeapInstance__C)

.const:xdc_runtime_Startup_execImpl__C 
*          0    0000054c    00000004     
                  0000054c    00000004     app_ble_pem3.oem3 (.const:xdc_runtime_Startup_execImpl__C)

.const:xdc_runtime_Startup_maxPasses__C 
*          0    00000550    00000004     
                  00000550    00000004     app_ble_pem3.oem3 (.const:xdc_runtime_Startup_maxPasses__C)

.const:xdc_runtime_Startup_sfxnRts__C 
*          0    00000554    00000004     
                  00000554    00000004     app_ble_pem3.oem3 (.const:xdc_runtime_Startup_sfxnRts__C)

.const:xdc_runtime_Startup_sfxnTab__C 
*          0    00000558    00000004     
                  00000558    00000004     app_ble_pem3.oem3 (.const:xdc_runtime_Startup_sfxnTab__C)

.const:xdc_runtime_Startup_startModsFxn__C 
*          0    0000055c    00000004     
                  0000055c    00000004     app_ble_pem3.oem3 (.const:xdc_runtime_Startup_startModsFxn__C)

.const:xdc_runtime_SysCallback_abortFxn__C 
*          0    00000560    00000004     
                  00000560    00000004     app_ble_pem3.oem3 (.const:xdc_runtime_SysCallback_abortFxn__C)

.const:xdc_runtime_SysCallback_exitFxn__C 
*          0    00000564    00000004     
                  00000564    00000004     app_ble_pem3.oem3 (.const:xdc_runtime_SysCallback_exitFxn__C)

.const:xdc_runtime_System_abortFxn__C 
*          0    00000568    00000004     
                  00000568    00000004     app_ble_pem3.oem3 (.const:xdc_runtime_System_abortFxn__C)

.const:xdc_runtime_System_exitFxn__C 
*          0    0000056c    00000004     
                  0000056c    00000004     app_ble_pem3.oem3 (.const:xdc_runtime_System_exitFxn__C)

.const:xdc_runtime_System_maxAtexitHandlers__C 
*          0    00000570    00000004     
                  00000570    00000004     app_ble_pem3.oem3 (.const:xdc_runtime_System_maxAtexitHandlers__C)

.const:xdc_runtime_Text_charTab__C 
*          0    00000574    00000004     
                  00000574    00000004     app_ble_pem3.oem3 (.const:xdc_runtime_Text_charTab__C)

.const:xdc_runtime_Text_nameEmpty__C 
*          0    00000578    00000004     
                  00000578    00000004     app_ble_pem3.oem3 (.const:xdc_runtime_Text_nameEmpty__C)

.const:xdc_runtime_Text_nameStatic__C 
*          0    0000057c    00000004     
                  0000057c    00000004     app_ble_pem3.oem3 (.const:xdc_runtime_Text_nameStatic__C)

.const:xdc_runtime_Text_nameUnknown__C 
*          0    00000580    00000004     
                  00000580    00000004     app_ble_pem3.oem3 (.const:xdc_runtime_Text_nameUnknown__C)

.const:xdc_runtime_Main_Module__id__C 
*          0    00000584    00000002     
                  00000584    00000002     app_ble_pem3.oem3 (.const:xdc_runtime_Main_Module__id__C)

.const:xdc_runtime_Memory_Module__id__C 
*          0    00000586    00000002     
                  00000586    00000002     app_ble_pem3.oem3 (.const:xdc_runtime_Memory_Module__id__C)

.const:xdc_runtime_Text_charCnt__C 
*          0    00000588    00000002     
                  00000588    00000002     app_ble_pem3.oem3 (.const:xdc_runtime_Text_charCnt__C)

.const:xdc_runtime_Text_isLoaded__C 
*          0    0000058a    00000002     
                  0000058a    00000002     app_ble_pem3.oem3 (.const:xdc_runtime_Text_isLoaded__C)

.const:xdc_runtime_Error_policy__C 
*          0    0000058c    00000001     
                  0000058c    00000001     app_ble_pem3.oem3 (.const:xdc_runtime_Error_policy__C)

.const:ti_sysbios_rom_ROM_AONRTCChannelEnable 
*          0    00000590    00000004     
                  00000590    00000004     app_ble_pem3.oem3 (.const:ti_sysbios_rom_ROM_AONRTCChannelEnable)

.const:ti_sysbios_rom_ROM_AONRTCCompareValueSet 
*          0    00000594    00000004     
                  00000594    00000004     app_ble_pem3.oem3 (.const:ti_sysbios_rom_ROM_AONRTCCompareValueSet)

.const:ti_sysbios_rom_ROM_AONRTCCurrentCompareValueGet 
*          0    00000598    00000004     
                  00000598    00000004     app_ble_pem3.oem3 (.const:ti_sysbios_rom_ROM_AONRTCCurrentCompareValueGet)

.const:ti_sysbios_rom_ROM_AONRTCEventClear 
*          0    0000059c    00000004     
                  0000059c    00000004     app_ble_pem3.oem3 (.const:ti_sysbios_rom_ROM_AONRTCEventClear)

.const:ti_sysbios_rom_ROM_ti_sysbios_family_arm_cc26xx_Timer_getCount64__E 
*          0    000005a0    00000004     
                  000005a0    00000004     app_ble_pem3.oem3 (.const:ti_sysbios_rom_ROM_ti_sysbios_family_arm_cc26xx_Timer_getCount64__E)

.const:ti_sysbios_rom_ROM_ti_sysbios_family_arm_cc26xx_Timer_getCurrentTick__E 
*          0    000005a4    00000004     
                  000005a4    00000004     app_ble_pem3.oem3 (.const:ti_sysbios_rom_ROM_ti_sysbios_family_arm_cc26xx_Timer_getCurrentTick__E)

.const:ti_sysbios_rom_ROM_ti_sysbios_family_arm_cc26xx_Timer_getMaxTicks__E 
*          0    000005a8    00000004     
                  000005a8    00000004     app_ble_pem3.oem3 (.const:ti_sysbios_rom_ROM_ti_sysbios_family_arm_cc26xx_Timer_getMaxTicks__E)

.const:ti_sysbios_rom_ROM_ti_sysbios_family_arm_cc26xx_Timer_initDevice__I 
*          0    000005ac    00000004     
                  000005ac    00000004     app_ble_pem3.oem3 (.const:ti_sysbios_rom_ROM_ti_sysbios_family_arm_cc26xx_Timer_initDevice__I)

.const:ti_sysbios_rom_ROM_ti_sysbios_family_arm_cc26xx_Timer_setNextTick__E 
*          0    000005b0    00000004     
                  000005b0    00000004     app_ble_pem3.oem3 (.const:ti_sysbios_rom_ROM_ti_sysbios_family_arm_cc26xx_Timer_setNextTick__E)

.const:ti_sysbios_rom_ROM_ti_sysbios_family_arm_cc26xx_Timer_setThreshold__I 
*          0    000005b4    00000004     
                  000005b4    00000004     app_ble_pem3.oem3 (.const:ti_sysbios_rom_ROM_ti_sysbios_family_arm_cc26xx_Timer_setThreshold__I)

.const:ti_sysbios_rom_ROM_ti_sysbios_family_arm_cc26xx_Timer_start__E 
*          0    000005b8    00000004     
                  000005b8    00000004     app_ble_pem3.oem3 (.const:ti_sysbios_rom_ROM_ti_sysbios_family_arm_cc26xx_Timer_start__E)

.const:ti_sysbios_rom_ROM_ti_sysbios_family_arm_cc26xx_TimestampProvider_get32__E 
*          0    000005bc    00000004     
                  000005bc    00000004     app_ble_pem3.oem3 (.const:ti_sysbios_rom_ROM_ti_sysbios_family_arm_cc26xx_TimestampProvider_get32__E)

.const:ti_sysbios_rom_ROM_xdc_runtime_Startup_getState__I 
*          0    000005c0    00000004     
                  000005c0    00000004     app_ble_pem3.oem3 (.const:ti_sysbios_rom_ROM_xdc_runtime_Startup_getState__I)

.const:ti_sysbios_rom_ROM_xdc_runtime_System_SupportProxy_abort__E 
*          0    000005c4    00000004     
                  000005c4    00000004     app_ble_pem3.oem3 (.const:ti_sysbios_rom_ROM_xdc_runtime_System_SupportProxy_abort__E)

.const:ti_sysbios_rom_ROM_xdc_runtime_System_SupportProxy_exit__E 
*          0    000005c8    00000004     
                  000005c8    00000004     app_ble_pem3.oem3 (.const:ti_sysbios_rom_ROM_xdc_runtime_System_SupportProxy_exit__E)

.const:ti_sysbios_gates_GateMutex_Instance_State_sem__O 
*          0    000005cc    00000004     
                  000005cc    00000004     app_ble_pem3.oem3 (.const:ti_sysbios_gates_GateMutex_Instance_State_sem__O)

.const:ti_sysbios_knl_Clock_Module_State_clockQ__O 
*          0    000005d0    00000004     
                  000005d0    00000004     app_ble_pem3.oem3 (.const:ti_sysbios_knl_Clock_Module_State_clockQ__O)

.const:ti_sysbios_knl_Mailbox_Instance_State_dataQue__O 
*          0    000005d4    00000004     
                  000005d4    00000004     app_ble_pem3.oem3 (.const:ti_sysbios_knl_Mailbox_Instance_State_dataQue__O)

.const:ti_sysbios_knl_Mailbox_Instance_State_dataSem__O 
*          0    000005d8    00000004     
                  000005d8    00000004     app_ble_pem3.oem3 (.const:ti_sysbios_knl_Mailbox_Instance_State_dataSem__O)

.const:ti_sysbios_knl_Mailbox_Instance_State_freeQue__O 
*          0    000005dc    00000004     
                  000005dc    00000004     app_ble_pem3.oem3 (.const:ti_sysbios_knl_Mailbox_Instance_State_freeQue__O)

.const:ti_sysbios_knl_Mailbox_Instance_State_freeSem__O 
*          0    000005e0    00000004     
                  000005e0    00000004     app_ble_pem3.oem3 (.const:ti_sysbios_knl_Mailbox_Instance_State_freeSem__O)

.const:ti_sysbios_knl_Semaphore_Instance_State_pendQ__O 
*          0    000005e4    00000004     
                  000005e4    00000004     app_ble_pem3.oem3 (.const:ti_sysbios_knl_Semaphore_Instance_State_pendQ__O)

.const:ti_sysbios_knl_Task_Module_State_inactiveQ__O 
*          0    000005e8    00000004     
                  000005e8    00000004     app_ble_pem3.oem3 (.const:ti_sysbios_knl_Task_Module_State_inactiveQ__O)

.cinit     0    0001f000    00000a44     
                  0001f000    00000859     (.cinit..data.load) [load image, compression = rle]
                  0001f859    00000007     --HOLE-- [fill = 0]
                  0001f860    0000002d     (.cinit..data:ti_sysbios_family_arm_m3_Hwi_Module__state__V.load) [load image, compression = rle]
                  0001f88d    00000003     --HOLE-- [fill = 0]
                  0001f890    0000002c     (.cinit..data:ti_sysbios_knl_Task_Module__state__V.load) [load image, compression = rle]
                  0001f8bc    00000004     --HOLE-- [fill = 0]
                  0001f8c0    00000021     (.cinit..data:ti_sysbios_knl_Clock_Module__state__V.load) [load image, compression = rle]
                  0001f8e1    00000007     --HOLE-- [fill = 0]
                  0001f8e8    0000001f     (.cinit..data:ti_sysbios_BIOS_Module__state__V.load) [load image, compression = rle]
                  0001f907    00000001     --HOLE-- [fill = 0]
                  0001f908    00000011     (.cinit..data:ti_sysbios_knl_Swi_Module__state__V.load) [load image, compression = rle]
                  0001f919    00000007     --HOLE-- [fill = 0]
                  0001f920    0000000d     (.cinit..data:ti_sysbios_family_arm_cc26xx_Timer_Module__state__V.load) [load image, compression = rle]
                  0001f92d    00000003     --HOLE-- [fill = 0]
                  0001f930    0000000b     (.cinit..bss.load) [load image, compression = rle]
                  0001f93b    00000005     --HOLE-- [fill = 0]
                  0001f940    0000000a     (.cinit..data:xdc_runtime_Memory_Module__state__V.load) [load image, compression = rle]
                  0001f94a    00000006     --HOLE-- [fill = 0]
                  0001f950    00000009     (.cinit..TI.bound:dmaSpi0RxControlTableEntry.load) [load image, compression = rle]
                  0001f959    00000007     --HOLE-- [fill = 0]
                  0001f960    00000009     (.cinit..TI.bound:dmaSpi0TxControlTableEntry.load) [load image, compression = rle]
                  0001f969    00000007     --HOLE-- [fill = 0]
                  0001f970    00000009     (.cinit..TI.bound:dmaSpi1RxControlTableEntry.load) [load image, compression = rle]
                  0001f979    00000007     --HOLE-- [fill = 0]
                  0001f980    00000009     (.cinit..TI.bound:dmaSpi1TxControlTableEntry.load) [load image, compression = rle]
                  0001f989    00000007     --HOLE-- [fill = 0]
                  0001f990    00000009     (.cinit..data:ti_sysbios_family_arm_cc26xx_TimestampProvider_Module__state__V.load) [load image, compression = rle]
                  0001f999    00000007     --HOLE-- [fill = 0]
                  0001f9a0    00000009     (.cinit..data:xdc_runtime_Startup_Module__state__V.load) [load image, compression = rle]
                  0001f9a9    00000007     --HOLE-- [fill = 0]
                  0001f9b0    00000009     (.cinit..data:xdc_runtime_System_Module__state__V.load) [load image, compression = rle]
                  0001f9b9    00000003     --HOLE-- [fill = 0]
                  0001f9bc    00000008     (__TI_handler_table)
                  0001f9c4    00000080     (__TI_cinit_table)

.init_array 
*          0    00000000    00000000     UNINITIALIZED

.ccfg      0    0001ffa8    00000058     
                  0001ffa8    00000058     ccfg_app_ble.obj (.ccfg:retain)

.data:ti_sysbios_knl_Task_Module__state__V 
*          0    20000100    00000044     UNINITIALIZED
                  20000100    00000044     app_ble_pem3.oem3 (.data:ti_sysbios_knl_Task_Module__state__V)

.data:ti_sysbios_family_arm_m3_Hwi_Module__state__V 
*          0    20000144    00000034     UNINITIALIZED
                  20000144    00000034     app_ble_pem3.oem3 (.data:ti_sysbios_family_arm_m3_Hwi_Module__state__V)

.data:ti_sysbios_knl_Clock_Module__state__V 
*          0    20000178    0000002c     UNINITIALIZED
                  20000178    0000002c     app_ble_pem3.oem3 (.data:ti_sysbios_knl_Clock_Module__state__V)

.data:ti_sysbios_BIOS_Module__state__V 
*          0    200001a4    00000024     UNINITIALIZED
                  200001a4    00000024     app_ble_pem3.oem3 (.data:ti_sysbios_BIOS_Module__state__V)

.data:ti_sysbios_knl_Swi_Module__state__V 
*          0    200001c8    0000001c     UNINITIALIZED
                  200001c8    0000001c     app_ble_pem3.oem3 (.data:ti_sysbios_knl_Swi_Module__state__V)

.data:ti_sysbios_family_arm_cc26xx_Timer_Module__state__V 
*          0    200001e4    00000008     UNINITIALIZED
                  200001e4    00000008     app_ble_pem3.oem3 (.data:ti_sysbios_family_arm_cc26xx_Timer_Module__state__V)

.data:ti_sysbios_family_arm_cc26xx_TimestampProvider_Module__state__V 
*          0    200001ec    00000004     UNINITIALIZED
                  200001ec    00000004     app_ble_pem3.oem3 (.data:ti_sysbios_family_arm_cc26xx_TimestampProvider_Module__state__V)

.data:xdc_runtime_Startup_Module__state__V 
*          0    200001f0    00000008     UNINITIALIZED
                  200001f0    00000008     app_ble_pem3.oem3 (.data:xdc_runtime_Startup_Module__state__V)

.data:xdc_runtime_System_Module__state__V 
*          0    200001f8    00000008     UNINITIALIZED
                  200001f8    00000008     app_ble_pem3.oem3 (.data:xdc_runtime_System_Module__state__V)

.data:xdc_runtime_Memory_Module__state__V 
*          0    20000200    00000004     UNINITIALIZED
                  20000200    00000004     app_ble_pem3.oem3 (.data:xdc_runtime_Memory_Module__state__V)

.TI.bound:dmaSpi0RxControlTableEntry 
*          0    20000430    00000010     UNINITIALIZED
                  20000430    00000010     SPICC26XXDMA.obj (.TI.bound:dmaSpi0RxControlTableEntry)

.TI.bound:dmaSpi1RxControlTableEntry 
*          0    20000500    00000010     UNINITIALIZED
                  20000500    00000010     SPICC26XXDMA.obj (.TI.bound:dmaSpi1RxControlTableEntry)

.data      0    20000520    00000ab0     UNINITIALIZED
                  20000520    00000130     devinfoservice.obj (.data:devInfoAttrTbl)
                  20000650    00000110     drivers_cc26xxware.aem3 : PowerCC26XX.oem3 (.data:PowerCC26XX_module)
                  20000760    00000080     barometerservice.obj (.data:sensorAttrTable)
                  200007e0    00000080     humidityservice.obj (.data:sensorAttrTable)
                  20000860    00000080     irtempservice.obj (.data:sensorAttrTable)
                  200008e0    00000080     movementservice.obj (.data:sensorAttrTable)
                  20000960    00000080     opticservice.obj (.data:sensorAttrTable)
                  200009e0    00000060     battservice.obj (.data:battAttrTbl)
                  20000a40    00000050     ioservice.obj (.data:ioAttrTbl)
                  20000a90    00000050     ble_user_config.obj (.data:rfRegTbl)
                  20000ae0    0000004c     app_ble_pem3.oem3 (.data:ti_sysbios_knl_Task_Object__table__V)
                  20000b2c    00000004     I2C.obj (.data)
                  20000b30    00000048     app_ble_pem3.oem3 (.data:ti_sysbios_family_arm_cc26xx_Timer_Object__table__V)
                  20000b78    00000038     app_ble_pem3.oem3 (.data:ti_sysbios_gates_GateMutex_Object__table__V)
                  20000bb0    00000030     app_ble_pem3.oem3 (.data:ti_sysbios_knl_Swi_Module_State_0_readyQ__A)
                  20000be0    00000030     app_ble_pem3.oem3 (.data:ti_sysbios_knl_Swi_Object__table__V)
                  20000c10    00000030     app_ble_pem3.oem3 (.data:ti_sysbios_knl_Task_Module_State_0_readyQ__A)
                  20000c40    00000030     main.obj (.data:user0Cfg)
                  20000c70    00000028     ExtFlash.obj (.data:flashInfo)
                  20000c98    00000020     app_ble_pem3.oem3 (.data:ti_sysbios_knl_Clock_Object__table__V)
                  20000cb8    0000001f     peripheral.obj (.data:gapRole_AdvertData)
                  20000cd7    0000001f     peripheral.obj (.data:gapRole_ScanRspData)
                  20000cf6    00000002     RFCC26XX_singleMode.obj (.data)
                  20000cf8    0000001c     sensortag.obj (.data:SensortagAppPinTable)
                  20000d14    0000001c     peripheral.obj (.data)
                  20000d30    0000001b     sensortag.obj (.data:scanRspData)
                  20000d4b    00000001     TRNGCC26XX.obj (.data)
                  20000d4c    00000018     app_ble_pem3.oem3 (.data:ti_sysbios_family_arm_m3_Hwi_Object__table__V)
                  20000d64    00000018     app_ble_pem3.oem3 (.data:ti_sysbios_heaps_HeapMem_Object__table__V)
                  20000d7c    00000015     devinfoservice.obj (.data:devInfoFirmwareRev)
                  20000d91    00000015     devinfoservice.obj (.data:devInfoHardwareRev)
                  20000da6    00000015     devinfoservice.obj (.data:devInfoMfrName)
                  20000dbb    00000015     devinfoservice.obj (.data:devInfoModelNumber)
                  20000dd0    00000015     devinfoservice.obj (.data:devInfoSerialNumber)
                  20000de5    00000015     devinfoservice.obj (.data:devInfoSoftwareRev)
                  20000dfa    00000012     movementservice.obj (.data:sensorData)
                  20000e0c    0000000e     sensortag.obj (.data:advertData)
                  20000e1a    00000002     battservice.obj (.data:hidReportRefBattLevel)
                  20000e1c    0000000e     battservice.obj (.data)
                  20000e2a    0000000e     devinfoservice.obj (.data:defaultDevInfo11073Cert)
                  20000e38    0000000e     devinfoservice.obj (.data)
                  20000e46    00000002     opticservice.obj (.data:sensorData)
                  20000e48    0000000c     rtsv7M3_T_le_eabi.lib : exit.obj (.data:$O1$$)
                  20000e54    0000000c     ExtFlash.obj (.data)
                  20000e60    0000000c     SensorMpu9250.obj (.data:MpuPinTable)
                  20000e6c    0000000c     icall.obj (.data)
                  20000e78    0000000c     icall_api.obj (.data)
                  20000e84    0000000c     sensortag.obj (.data)
                  20000e90    0000000a     peripheral.obj (.data:gapRole_updateConnParams)
                  20000e9a    00000002     app_ble_pem3.oem3 (.data:ti_sysbios_family_arm_m3_Hwi_Module_State_0_excActive__A)
                  20000e9c    00000009     SensorMpu9250.obj (.data)
                  20000ea5    00000003     --HOLE--
                  20000ea8    00000009     barometerservice.obj (.data)
                  20000eb1    00000003     --HOLE--
                  20000eb4    00000009     humidityservice.obj (.data)
                  20000ebd    00000003     --HOLE--
                  20000ec0    00000009     irtempservice.obj (.data)
                  20000ec9    00000003     --HOLE--
                  20000ecc    00000009     opticservice.obj (.data)
                  20000ed5    00000003     --HOLE--
                  20000ed8    00000008     rtsv7M3_T_le_eabi.lib : _lock.obj (.data:$O1$$)
                  20000ee0    00000008     ExtFlash.obj (.data:BoardFlashPinTable)
                  20000ee8    00000008     battservice.obj (.data:battLevelPresentation)
                  20000ef0    00000008     devinfoservice.obj (.data:devInfoSystemId)
                  20000ef8    00000008     icall_cc2650.obj (.data)
                  20000f00    00000008     ioservice.obj (.data)
                  20000f08    00000008     movementservice.obj (.data)
                  20000f10    00000008     sensortag.obj (.data:sensorTag_bondMgrCBs)
                  20000f18    00000008     app_ble_pem3.oem3 (.data:ti_sysbios_family_arm_m3_Hwi_Module__root__V)
                  20000f20    00000008     app_ble_pem3.oem3 (.data:ti_sysbios_gates_GateHwi_Module__root__V)
                  20000f28    00000008     app_ble_pem3.oem3 (.data:ti_sysbios_gates_GateMutex_Module__root__V)
                  20000f30    00000008     app_ble_pem3.oem3 (.data:ti_sysbios_hal_Hwi_Module__root__V)
                  20000f38    00000008     app_ble_pem3.oem3 (.data:ti_sysbios_heaps_HeapMem_Module__root__V)
                  20000f40    00000008     app_ble_pem3.oem3 (.data:ti_sysbios_knl_Clock_Module__root__V)
                  20000f48    00000008     app_ble_pem3.oem3 (.data:ti_sysbios_knl_Mailbox_Module__root__V)
                  20000f50    00000008     app_ble_pem3.oem3 (.data:ti_sysbios_knl_Queue_Module__root__V)
                  20000f58    00000008     app_ble_pem3.oem3 (.data:ti_sysbios_knl_Semaphore_Module__root__V)
                  20000f60    00000008     app_ble_pem3.oem3 (.data:ti_sysbios_knl_Swi_Module__root__V)
                  20000f68    00000008     app_ble_pem3.oem3 (.data:ti_sysbios_knl_Task_Module__root__V)
                  20000f70    00000007     devinfoservice.obj (.data:devInfoPnpId)
                  20000f77    00000006     peripheral.obj (.data:gapRole_AdvDirectAddr)
                  20000f7d    00000006     peripheral.obj (.data:gapRole_ConnectedDevAddr)
                  20000f83    00000006     barometerservice.obj (.data:sensorData)
                  20000f89    00000003     --HOLE--
                  20000f8c    00000004     icall.obj (.data:ICall_initParams)
                  20000f90    00000004     SPI.obj (.data)
                  20000f94    00000004     ble_user_config.obj (.data)
                  20000f98    00000004     rtsv7M3_T_le_eabi.lib : stkdepth_vars.obj (.data)
                  20000f9c    00000004     sensortag_bar.obj (.data:sensorCallbacks)
                  20000fa0    00000004     sensortag_hum.obj (.data:sensorCallbacks)
                  20000fa4    00000004     sensortag_mov.obj (.data:sensorCallbacks)
                  20000fa8    00000004     sensortag_opt.obj (.data:sensorCallbacks)
                  20000fac    00000004     sensortag_tmp.obj (.data:sensorCallbacks)
                  20000fb0    00000004     humidityservice.obj (.data:sensorData)
                  20000fb4    00000004     irtempservice.obj (.data:sensorData)
                  20000fb8    00000004     sensortag.obj (.data:sensorTag_gapRoleCBs)
                  20000fbc    00000004     sensortag_io.obj (.data:sensorTag_ioCBs)
                  20000fc0    00000004     sensortag_buzzer.obj (.data)
                  20000fc4    00000004     app_ble_pem3.oem3 (.data:ti_sysbios_family_arm_m3_Hwi_Module_State_0_excContext__A)
                  20000fc8    00000004     app_ble_pem3.oem3 (.data:ti_sysbios_family_arm_m3_Hwi_Module_State_0_excStack__A)
                  20000fcc    00000004     app_ble_pem3.oem3 (.data:ti_sysbios_knl_Task_Module_State_0_idleTask__A)

.bss       0    20000fd0    0000200e     UNINITIALIZED
                  20000fd0    00000680     (.common:ti_sysbios_heaps_HeapMem_Instance_State_0_buf__A)
                  20001650    000002bc     sensortag.obj (.bss:sensorTagTaskStack)
                  2000190c    00000258     sensortag_bar.obj (.bss:sensorTaskStack)
                  20001b64    00000258     sensortag_hum.obj (.bss:sensorTaskStack)
                  20001dbc    00000258     sensortag_tmp.obj (.bss:sensorTaskStack)
                  20002014    00000004     PINCC26XX.obj (.bss)
                  20002018    00000200     app_ble_pem3.oem3 (.bss:taskStackSection)
                  20002218    000001b8     (.common:gapRoleTaskStack)
                  200023d0    000001b8     (.common:spiCC26XXDMAObjects)
                  20002588    00000100     RFCC26XX_singleMode.obj (.bss:aCmdPool)
                  20002688    000000e0     (.common:i2cCC26xxObjects)
                  20002768    000000c8     (.common:ti_sysbios_family_arm_m3_Hwi_dispatchTable)
                  20002830    00000084     icall.obj (.bss:ICall_entities)
                  200028b4    0000007c     (.common:PIN_HandleTable)
                  20002930    00000060     icall.obj (.bss:ICall_tasks)
                  20002990    00000050     sensortag.obj (.bss:sensorTagTask)
                  200029e0    00000050     sensortag_bar.obj (.bss:sensorTask)
                  20002a30    00000050     sensortag_hum.obj (.bss:sensorTask)
                  20002a80    00000050     sensortag_tmp.obj (.bss:sensorTask)
                  20002ad0    00000050     (.common:gapRoleTask)
                  20002b20    00000034     PINCC26XX.obj (.bss:PinSwi)
                  20002b54    00000034     RFCC26XX_singleMode.obj (.bss:swiFsm)
                  20002b88    00000034     RFCC26XX_singleMode.obj (.bss:swiHw)
                  20002bbc    0000002a     RFCC26XX_singleMode.obj (.bss)
                  20002be6    00000002     SensorTmp007.obj (.bss)
                  20002be8    00000024     RFCC26XX_singleMode.obj (.bss:clkPowerUp)
                  20002c0c    00000024     sensortag.obj (.bss:periodicClock)
                  20002c30    00000024     sensortag_batt.obj (.bss:periodicClock)
                  20002c54    00000024     sensortag_mov.obj (.bss:periodicClock)
                  20002c78    00000024     sensortag_opt.obj (.bss:periodicClock)
                  20002c9c    00000024     peripheral.obj (.bss:startAdvClock)
                  20002cc0    00000024     peripheral.obj (.bss:startUpdateClock)
                  20002ce4    00000024     peripheral.obj (.bss:updateTimeoutClock)
                  20002d08    00000020     PINCC26XX.obj (.bss:PinGpioConfigTable)
                  20002d28    00000020     SensorI2C.obj (.bss:buffer)
                  20002d48    00000020     RFCC26XX_singleMode.obj (.bss:cmdDirImm)
                  20002d68    00000020     ExtFlash.obj (.bss:spiParams)
                  20002d88    00000020     (.common:udmaObjects)
                  20002da8    0000001c     PINCC26XX.obj (.bss:PinHwi)
                  20002dc4    0000001c     PINCC26XX.obj (.bss:PinSem)
                  20002de0    0000001c     RFCC26XX_singleMode.obj (.bss:hwiCpe0)
                  20002dfc    0000001c     RFCC26XX_singleMode.obj (.bss:hwiHw)
                  20002e18    0000001c     SensorI2C.obj (.bss:mutex)
                  20002e34    00000018     SensorBmp280.obj (.bss:calData)
                  20002e4c    00000014     RFCC26XX_singleMode.obj (.bss:cmdQ)
                  20002e60    00000014     icall.obj (.bss)
                  20002e74    00000014     RFCC26XX_singleMode.obj (.bss:opRatSync)
                  20002e88    00000014     driverlib.lib : osc.obj (.bss:oscHfGlobals)
                  20002e9c    00000014     peripheral.obj (.bss)
                  20002eb0    00000014     sensortag_mov.obj (.bss:sensorData)
                  20002ec4    00000010     SensorMpu9250.obj (.bss)
                  20002ed4    00000010     peripheral.obj (.bss:gapRole_IRK)
                  20002ee4    00000010     peripheral.obj (.bss:gapRole_SRK)
                  20002ef4    00000010     SensorI2C.obj (.bss:i2cParams)
                  20002f04    00000010     sensortag_mov.obj (.bss)
                  20002f14    0000000c     sensortag.obj (.bss:appMsg)
                  20002f20    0000000c     battservice.obj (.bss)
                  20002f2c    0000000c     SensorMpu9250.obj (.bss:pinGpioState)
                  20002f38    0000000c     ExtFlash.obj (.bss:pinState)
                  20002f44    0000000c     sensortag_bar.obj (.bss)
                  20002f50    0000000c     sensortag_hum.obj (.bss)
                  20002f5c    0000000c     sensortag_tmp.obj (.bss)
                  20002f68    0000000c     (.common:pinGpioState)
                  20002f74    00000008     peripheral.obj (.bss:gapRole_bdAddr)
                  20002f7c    00000008     driverlib.lib : sys_ctrl.obj (.bss:powerQualGlobals)
                  20002f84    00000007     sensortag.obj (.bss)
                  20002f8b    00000001     SensorHdc1000.obj (.bss)
                  20002f8c    00000006     SensorI2C.obj (.bss)
                  20002f92    00000005     sensortag_opt.obj (.bss)
                  20002f97    00000001     SensorTagTest.obj (.bss)
                  20002f98    00000004     barometerservice.obj (.bss)
                  20002f9c    00000004     SensorTmp007.obj (.bss:buf)
                  20002fa0    00000004     SensorHdc1000.obj (.bss:data)
                  20002fa4    00000004     humidityservice.obj (.bss)
                  20002fa8    00000004     ExtFlash.obj (.bss:infoBuf)
                  20002fac    00000004     ioservice.obj (.bss)
                  20002fb0    00000004     irtempservice.obj (.bss)
                  20002fb4    00000004     movementservice.obj (.bss)
                  20002fb8    00000004     opticservice.obj (.bss)
                  20002fbc    00000004     SensorMpu9250.obj (.bss:rawData$2)
                  20002fc0    00000004     movementservice.obj (.bss:sensorCfg)
                  20002fc4    00000004     (.common:HEAPMGR_SIZE)
                  20002fc8    00000004     (.common:PIN_NumPins)
                  20002fcc    00000004     (.common:hGpioPin)
                  20002fd0    00000004     (.common:sem)
                  20002fd4    00000004     (.common:trngCC26XXObjects)
                  20002fd8    00000002     sensortag_io.obj (.bss)
                  20002fda    00000001     sensortag_batt.obj (.bss)
                  20002fdb    00000001     (.common:driverlib_release_0_46593)
                  20002fdc    00000001     (.common:linkDBNumConns)
                  20002fdd    00000001     (.common:selfEntityMain)

.vtable    0    20002fde    00000000     UNINITIALIZED

.vtable_ram 
*          0    20002fde    00000000     UNINITIALIZED

vtable_ram 
*          0    20002fde    00000000     UNINITIALIZED

.sysmem    0    20002fde    00000000     UNINITIALIZED

.nonretenvar 
*          0    20002fde    00000000     UNINITIALIZED

.stack     0    20004028    00000400     UNINITIALIZED
                  20004028    00000400     --HOLE--

.bootVecs 
*          0    00000000    00000008     DSECT
                  00000000    00000008     boot.aem3 : boot.oem3 (.bootVecs)

.resetVecs 
*          0    00000000    0000003c     
                  00000000    0000003c     app_ble_pem3.oem3 (.resetVecs)

.vecs      0    20000000    000000c8     NOLOAD SECTION
                  20000000    000000c8     app_ble_pem3.oem3 (.vecs)

xdc.meta   0    00000000    0000010b     COPY SECTION
                  00000000    0000010b     app_ble_pem3.oem3 (xdc.meta)

xdc.noload 
*          0    00000000    00000000     COPY SECTION

.TI.bound:dmaSpi0TxControlTableEntry 
*          0    20000440    00000010     UNINITIALIZED
                  20000440    00000010     SPICC26XXDMA.obj (.TI.bound:dmaSpi0TxControlTableEntry)

.TI.bound:dmaSpi1TxControlTableEntry 
*          0    20000510    00000010     UNINITIALIZED
                  20000510    00000010     SPICC26XXDMA.obj (.TI.bound:dmaSpi1TxControlTableEntry)

.text.1    0    0000003c    000000c4     
                  0000003c    000000c4     barometerservice.obj (.text:Barometer_setParameter)

.text.2    0    00000480    00000004     
                  00000480    00000004     drivers_cc26xxware.aem3 : List.oem3 (.text:List_head)

.text.3    0    00000500    00000002     
                  00000500    00000002     driverlib.lib : rfc.obj (.text:NOROM_RFCAdi3VcoLdoVoltageMode)

.text.4    0    000005ec    0000fa4c     
                  000005ec    0000052c     peripheral.obj (.text:GAPRole_SetParameter)
                  00000b18    000004fc     RFCC26XX_singleMode.obj (.text:fsmActiveState)
                  00001014    000004e4     peripheral.obj (.text:gapRole_processGAPMsg)
                  000014f8    00000270     RFCC26XX_singleMode.obj (.text:abortCmd)
                  00001768    0000026c     peripheral.obj (.text:GAPRole_GetParameter)
                  000019d4    00000248     RFCC26XX_singleMode.obj (.text:RF_postCmd)
                  00001c1c    00000244     PINCC26XX.obj (.text:PIN_init)
                  00001e60    00000240     SPICC26XXDMA.obj (.text:SPICC26XXDMA_initIO)
                  000020a0    0000023c     sensortag.obj (.text:SensorTag_init)
                  000022dc    00000228     drivers_cc26xxware.aem3 : PowerCC26XX.oem3 (.text:Power_sleep)
                  00002504    00000204     driverlib.lib : sys_ctrl.obj (.text:NOROM_SysCtrlSetRechargeBeforePowerDown)
                  00002708    000001f8     devinfoservice.obj (.text:DevInfo_SetParameter)
                  00002900    000001f4     rtsv7M3_T_le_eabi.lib : ull_div_t2.obj (.text)
                  00002af4    000001d0     drivers_cc26xxware.aem3 : PowerCC26XX_calibrateRCOSC.oem3 (.text:calibrateRcoscHf1)
                  00002cc4    000001c4     I2CCC26XX.obj (.text:I2CCC26XX_hwiFxn)
                  00002e88    000001a0     devinfoservice.obj (.text:devInfo_ReadAttrCB)
                  00003028    00000194     SPICC26XXDMA.obj (.text:SPICC26XXDMA_open)
                  000031bc    00000194     SensorBmp280.obj (.text:SensorBmp280_convert)
                  00003350    0000018c     sensortag_mov.obj (.text:SensorTagMov_processSensorEvent)
                  000034dc    00000184     drivers_cc26xxware.aem3 : PowerCC26XX_calibrateRCOSC.oem3 (.text:PowerCC26XX_doCalibrate)
                  00003660    0000017c     RFCC26XX_singleMode.obj (.text:fsmSetupState)
                  000037dc    0000016c     peripheral.obj (.text:gapRole_taskFxn)
                  00003948    00000164     RFCC26XX_singleMode.obj (.text:hwiFxnCpe0Active)
                  00003aac    00000158     SensorMpu9250.obj (.text:SensorMpu9250_magRead)
                  00003c04    0000014c     icall.obj (.text:ICall_heapMalloc)
                  00003d50    00000148     SPICC26XXDMA.obj (.text:SPICC26XXDMA_configDMA)
                  00003e98    00000140     SensorMpu9250.obj (.text:SensorMpu9250_enableWom)
                  00003fd8    00000140     barometerservice.obj (.text:sensor_WriteAttrCB)
                  00004118    00000140     humidityservice.obj (.text:sensor_WriteAttrCB)
                  00004258    00000140     irtempservice.obj (.text:sensor_WriteAttrCB)
                  00004398    00000140     opticservice.obj (.text:sensor_WriteAttrCB)
                  000044d8    0000013e     icall.obj (.text:ICall_primWaitMatch)
                  00004616    00000002     driverlib.lib : rfc.obj (.text:NOROM_RFCRTrim)
                  00004618    0000013c     RFCC26XX_singleMode.obj (.text:rf_init)
                  00004754    0000013c     movementservice.obj (.text:sensor_WriteAttrCB)
                  00004890    00000130     driverlib.lib : setup.obj (.text:NOROM_SetupAfterColdResetWakeupFromShutDownCfg3)
                  000049c0    0000012c     PINCC26XX.obj (.text:PINCC26XX_setIoCfg)
                  00004aec    00000124     ioservice.obj (.text:io_WriteAttrCB)
                  00004c10    00000122     I2CCC26XX.obj (.text:I2CCC26XX_transfer)
                  00004d32    00000002     drivers_cc26xxware.aem3 : PowerCC26XX.oem3 (.text:emptyClockFunc)
                  00004d34    00000120     I2CCC26XX.obj (.text:I2CCC26XX_open)
                  00004e54    0000011c     drivers_cc26xxware.aem3 : PowerCC26XX.oem3 (.text:Power_init)
                  00004f70    00000118     PINCC26XX.obj (.text:PIN_open)
                  00005088    00000118     RFCC26XX_singleMode.obj (.text:fsmPowerUpState)
                  000051a0    00000110     SPICC26XXDMA.obj (.text:SPICC26XXDMA_control)
                  000052b0    00000108     RFCC26XX_singleMode.obj (.text:swiFxnHw)
                  000053b8    00000104     SensorTmp007.obj (.text:SensorTmp007_test)
                  000054bc    00000100     sensortag.obj (.text:SensorTag_processStateChangeEvt)
                  000055bc    000000fc     SPICC26XXDMA.obj (.text:SPICC26XXDMA_transferCancel)
                  000056b8    000000fc     rtsv7M3_T_le_eabi.lib : fd_mul_t2.obj (.text)
                  000057b4    000000fa                           : fs_add_t2.obj (.text)
                  000058ae    00000002     rom_sysbios.aem3 : rom_sysbios.obj (.text:ti_sysbios_BIOS_linkedWithIncorrectBootLibrary__E)
                  000058b0    000000f8     peripheral.obj (.text:gapRole_init)
                  000059a8    000000f0     RFCC26XX_singleMode.obj (.text:RF_open)
                  00005a98    000000f0     sensortag_bar.obj (.text:sensorTaskFxn)
                  00005b88    000000e8     I2CCC26XX.obj (.text:I2CCC26XX_primeTransfer)
                  00005c70    000000e8     sensortag_io.obj (.text:SensorTagIO_processCharChangeEvt)
                  00005d58    000000e4     driverlib.lib : setup.obj (.text:NOROM_SetupAfterColdResetWakeupFromShutDownCfg2)
                  00005e3c    000000dc     gattservapp_util.obj (.text:GATTServApp_ProcessCharCfg)
                  00005f18    000000dc     sensortag_mov.obj (.text:SensorTagMov_processCharChangeEvt)
                  00005ff4    000000d8     SPICC26XXDMA.obj (.text:SPICC26XXDMA_hwiFxn)
                  000060cc    000000d8     SensorBmp280.obj (.text:SensorBmp280_test)
                  000061a4    000000d4     I2CCC26XX.obj (.text:I2CCC26XX_initIO)
                  00006278    000000d4     drivers_cc26xxware.aem3 : PowerCC26XX.oem3 (.text:Power_releaseDependency)
                  0000634c    000000d0     irtempservice.obj (.text:IRTemp_setParameter)
                  0000641c    000000d0     drivers_cc26xxware.aem3 : PowerCC26XX.oem3 (.text:Power_setDependency)
                  000064ec    000000d0     sensortag.obj (.text:SensorTag_taskFxn)
                  000065bc    000000d0     sensortag_tmp.obj (.text:sensorTaskFxn)
                  0000668c    000000cc     icall.obj (.text:ICall_primEnroll)
                  00006758    000000cc     SPICC26XXDMA.obj (.text:SPICC26XXDMA_transfer)
                  00006824    000000cc     SensorTmp007.obj (.text:SensorTmp007_read)
                  000068f0    000000cc     driverlib.lib : setup.obj (.text:TrimAfterColdResetWakeupFromShutDown)
                  000069bc    000000c8     sensortag_hum.obj (.text:sensorTaskFxn)
                  00006a84    000000c4     icall.obj (.text:ICall_primSetTimer)
                  00006b48    000000c4     movementservice.obj (.text:Movement_setParameter)
                  00006c0c    000000c0     humidityservice.obj (.text:Humidity_setParameter)
                  00006ccc    000000c0     icall.obj (.text:ICall_heapInit)
                  00006d8c    000000c0     opticservice.obj (.text:Optic_setParameter)
                  00006e4c    000000c0     SensorTagTest.obj (.text:SensorTag_testExecute)
                  00006f0c    000000bc     I2CCC26XX.obj (.text:I2CCC26XX_cancel)
                  00006fc8    000000bc     power_cc26xx_tirtos.aem3 : PowerCC26XX_tirtos.oem3 (.text:PowerCC26XX_standbyPolicy)
                  00007084    000000bc     peripheral.obj (.text:gapRole_startConnUpdate)
                  00007140    000000b8     sensortag_opt.obj (.text:SensorTagOpt_processCharChangeEvt)
                  000071f8    000000b4     sensortag_bar.obj (.text:SensorTagBar_processCharChangeEvt)
                  000072ac    000000b4     sensortag_mov.obj (.text:appStateSet)
                  00007360    000000b0     icall.obj (.text:ICall_primRegisterApp)
                  00007410    000000b0     battservice.obj (.text:battWriteAttrCB)
                  000074c0    000000ac     gattservapp_util.obj (.text:gattServApp_SendNotiInd)
                  0000756c    000000a8     icall.obj (.text:ICall_primThreadServes)
                  00007614    000000a8     sensortag_buzzer.obj (.text:SensorTagBuzzer_setFrequency)
                  000076bc    000000a8     sensortag_tmp.obj (.text:SensorTagTmp_processCharChangeEvt)
                  00007764    000000a8     TRNGCC26XX.obj (.text:TRNGCC26XX_getNumber)
                  0000780c    000000a8     battservice.obj (.text:battReadAttrCB)
                  000078b4    000000a4     icall_cc2650.obj (.text:ICallPlatform_pwrRegisterNotify)
                  00007958    000000a4     icall.obj (.text:ICall_newTask)
                  000079fc    000000a4     driverlib.lib : setup.obj (.text:NOROM_SetupTrimDevice)
                  00007aa0    000000a4     sensortag_hum.obj (.text:SensorTagHum_processCharChangeEvt)
                  00007b44    000000a4     SensorMpu9250.obj (.text:sensorMagInit)
                  00007be8    000000a2     I2CCC26XX.obj (.text:I2CCC26XX_swiFxn)
                  00007c8a    00000002     app_ble_pem3.oem3 (.text:ti_sysbios_BIOS_nullFunc__I)
                  00007c8c    000000a0     SensorI2C.obj (.text:SensorI2C_select)
                  00007d2c    000000a0     auto_init.aem3 : auto_init.oem3 (.text)
                  00007dcc    000000a0     rom_sysbios.aem3 : rom_sysbios.obj (.text:ti_sysbios_knl_Task_setPri__E)
                  00007e6c    0000009c     icall.obj (.text:ICall_createRemoteTasks)
                  00007f08    0000009c     ioservice.obj (.text:Io_setParameter)
                  00007fa4    0000009c     RFCC26XX_singleMode.obj (.text:RF_pendCmd)
                  00008040    0000009c     rtsv7M3_T_le_eabi.lib : memcpy_t2.obj (.text)
                  000080dc    0000009c     movementservice.obj (.text:sensor_ReadAttrCB)
                  00008178    0000009a     sensortag.obj (.text:SensorTag_processCharValueChangeEvt)
                  00008212    00000002     rom_sysbios.aem3 : rom_sysbios.obj (.text:ti_sysbios_knl_Clock_triggerFunc__I)
                  00008214    00000098     icall_cc2650.obj (.text:ICallPlatform_pwrUpdActivityCounter)
                  000082ac    00000098     icall.obj (.text:ICall_primSend)
                  00008344    00000098     PINCC26XX.obj (.text:PIN_remove)
                  000083dc    00000098     rom_sysbios.aem3 : rom_sysbios.obj (.text:ti_sysbios_knl_Clock_workFuncDynamic__E)
                  00008474    00000096     gattservapp_util.obj (.text:GATTServApp_ProcessCCCWriteReq)
                  0000850a    00000002     app_ble_pem3.oem3 (.text:ti_sysbios_rom_cortexm_cc26xx_CC26xx_badRomRevision__E)
                  0000850c    00000094     PINCC26XX.obj (.text:PIN_add)
                  000085a0    00000094     RFCC26XX_singleMode.obj (.text:RF_getCurrentTime)
                  00008634    00000090     icall.obj (.text:ICall_primGetEntityId)
                  000086c4    00000090     RFCC26XX_singleMode.obj (.text:RF_getInfo)
                  00008754    00000090     SensorHdc1000.obj (.text:SensorHdc1000_test)
                  000087e4    00000090     SensorMpu9250.obj (.text:SensorMpu9250_reset)
                  00008874    00000090     drivers_cc26xxware.aem3 : PowerCC26XX.oem3 (.text:switchXOSCHFclockFunc)
                  00008904    0000008c     driverlib.lib : osc.obj (.text:NOROM_OSCHF_GetStartupTime)
                  00008990    0000008c     barometerservice.obj (.text:sensor_ReadAttrCB)
                  00008a1c    00000088     SensorMpu9250.obj (.text:sensorMpu9250WakeUp)
                  00008aa4    00000088     humidityservice.obj (.text:sensor_ReadAttrCB)
                  00008b2c    00000088     irtempservice.obj (.text:sensor_ReadAttrCB)
                  00008bb4    00000088     opticservice.obj (.text:sensor_ReadAttrCB)
                  00008c3c    00000086     rtsv7M3_T_le_eabi.lib : fd_cmp_t2.obj (.text:__aeabi_cdrcmple)
                  00008cc2    00000084     icall.obj (.text:ICall_primWait)
                  00008d46    00000002     rom_sysbios.aem3 : rom_sysbios.obj (.text:xdc_runtime_SysCallback_defaultAbort)
                  00008d48    00000084     sensortag_mov.obj (.text:SensorTagMov_init)
                  00008dcc    00000084     RFCC26XX_singleMode.obj (.text:fsmPowerDownState)
                  00008e50    0000007c     I2CCC26XX.obj (.text:I2CCC26XX_close)
                  00008ecc    0000007c     SensorHdc1000.obj (.text:SensorHdc1000_read)
                  00008f48    0000007c     SensorMpu9250.obj (.text:SensorMpu9250_magReset)
                  00008fc4    0000007c     RFCC26XX_singleMode.obj (.text:applyRfCorePatch)
                  00009040    0000007c     RFCC26XX_singleMode.obj (.text:decActiveClientCnt)
                  000090bc    0000007c     drivers_cc26xxware.aem3 : PowerCC26XX.oem3 (.text:disableLFClockQualifiers)
                  00009138    0000007a     rtsv7M3_T_le_eabi.lib : memset_t2.obj (.text)
                  000091b2    00000002     rom_sysbios.aem3 : rom_sysbios.obj (.text:xdc_runtime_SysCallback_defaultExit)
                  000091b4    00000078     driverlib.lib : setup.obj (.text:NOROM_SetupAfterColdResetWakeupFromShutDownCfg1)
                  0000922c    00000078     SPICC26XXDMA.obj (.text:SPICC26XXDMA_initHw)
                  000092a4    00000076     SPICC26XXDMA.obj (.text:SPICC26XXDMA_close)
                  0000931a    00000076     SensorOpt3001.obj (.text:SensorOpt3001_read)
                  00009390    00000076     icall_api.obj (.text:sendWaitMatchValueCS)
                  00009406    00000002     --HOLE-- [fill = 0]
                  00009408    00000074     gattservapp_util.obj (.text:GATTServApp_InitCharCfg)
                  0000947c    00000074     PINCC26XX.obj (.text:PIN_swi)
                  000094f0    00000074     drivers_cc26xxware.aem3 : PowerCC26XX_calibrateRCOSC.oem3 (.text:PowerCC26XX_auxISR)
                  00009564    00000074     SensorMpu9250.obj (.text:SensorMpu9250_test)
                  000095d8    00000074     SensorOpt3001.obj (.text:SensorOpt3001_convert)
                  0000964c    00000074     battservice.obj (.text:battNotify)
                  000096c0    00000074     drivers_cc26xxware.aem3 : PowerCC26XX_calibrateRCOSC.oem3 (.text:calibrateRcoscHf2)
                  00009734    00000074     RFCC26XX_singleMode.obj (.text:hwiFxnHw)
                  000097a8    00000074     RFCC26XX_singleMode.obj (.text:syncCb)
                  0000981c    00000070     driverlib.lib : chipinfo.obj (.text:NOROM_ChipInfo_GetHwRevision)
                  0000988c    00000070     PINCC26XX.obj (.text:PINCC26XX_getConfig)
                  000098fc    00000070     SensorI2C.obj (.text:SensorI2C_open)
                  0000996c    00000070     sensortag_io.obj (.text:SensorTagIO_blinkLed)
                  000099dc    00000070     UDMACC26XX.obj (.text:UDMACC26XX_open)
                  00009a4c    00000070     peripheral.obj (.text:gapRole_processStackMsg)
                  00009abc    00000070     ioservice.obj (.text:io_ReadAttrCB)
                  00009b2c    00000070     st_util.obj (.text:utilExtractUuid16)
                  00009b9c    0000006e     rtsv7M3_T_le_eabi.lib : fd_tos_t2.obj (.text)
                  00009c0a    00000002     --HOLE-- [fill = 0]
                  00009c0c    0000006c     icall_api.obj (.text:GAP_DeviceInit)
                  00009c78    0000006c     icall_api.obj (.text:GAP_UpdateAdvertisingData)
                  00009ce4    0000006c     icall.obj (.text:ICall_init)
                  00009d50    0000006c     driverlib.lib : setup.obj (.text:NOROM_SetupGetTrimForAmpcompCtrl)
                  00009dbc    0000006c     drivers_cc26xxware.aem3 : PowerCC26XX.oem3 (.text:PowerCC26XX_calibrate)
                  00009e28    0000006c     SensorI2C.obj (.text:SensorI2C_writeReg)
                  00009e94    0000006c     SensorMpu9250.obj (.text:SensorMpu9250_accSetRange)
                  00009f00    0000006a     rtsv7M3_T_le_eabi.lib : copy_decompress_rle.obj (.text)
                  00009f6a    00000002     --HOLE-- [fill = 0]
                  00009f6c    00000068     driverlib.lib : setup.obj (.text:NOROM_SetupGetTrimForAnabypassValue1)
                  00009fd4    00000068                   : sys_ctrl.obj (.text:NOROM_SysCtrl_DCDC_VoltageConditionalControl)
                  0000a03c    00000068     RFCC26XX_singleMode.obj (.text:RF_runCmd)
                  0000a0a4    00000068     RFCC26XX_singleMode.obj (.text:dispatchOpWhen)
                  0000a10c    00000068     ExtFlash.obj (.text:extFlashVerifyPart)
                  0000a174    00000068     RFCC26XX_singleMode.obj (.text:getCmd)
                  0000a1dc    00000068     RFCC26XX_singleMode.obj (.text:ratChanFree)
                  0000a244    00000068     icall_api.obj (.text:sendWaitMatchCS)
                  0000a2ac    00000066     SensorOpt3001.obj (.text:SensorOpt3001_test)
                  0000a312    00000002     --HOLE-- [fill = 0]
                  0000a314    00000064     barometerservice.obj (.text:Barometer_getParameter)
                  0000a378    00000064     icall.obj (.text:ICall_msecs2Ticks)
                  0000a3dc    00000064     icall.obj (.text:ICall_searchTask)
                  0000a440    00000064     sensortag_opt.obj (.text:SensorTagOpt_processSensorEvent)
                  0000a4a4    00000064     util.obj (.text:Util_rescheduleClock)
                  0000a508    00000064     icall_api.obj (.text:gattIndNoti)
                  0000a56c    00000064     rom_sysbios.aem3 : rom_sysbios.obj (.text:ti_sysbios_family_arm_cc26xx_Timer_start__E)
                  0000a5d0    00000062     RFCC26XX_singleMode.obj (.text:Q_push)
                  0000a632    00000002     --HOLE-- [fill = 0]
                  0000a634    00000060     ExtFlash.obj (.text:ExtFlash_open)
                  0000a694    00000060     icall_api.obj (.text:GAPBondMgr_LinkEst)
                  0000a6f4    00000060     peripheral.obj (.text:GAPRole_SendUpdateParam)
                  0000a754    00000060     humidityservice.obj (.text:Humidity_getParameter)
                  0000a7b4    00000060     icall.obj (.text:ICall_primGetMaxMSecs)
                  0000a814    00000060     icall.obj (.text:ICall_searchServiceEntity)
                  0000a874    00000060     irtempservice.obj (.text:IRTemp_getParameter)
                  0000a8d4    00000060     opticservice.obj (.text:Optic_getParameter)
                  0000a934    00000060     drivers_cc26xxware.aem3 : PowerCC26XX_calibrateRCOSC.oem3 (.text:PowerCC26XX_RCOSC_clockFunc)
                  0000a994    00000060     sensortag_opt.obj (.text:SensorTagOpt_init)
                  0000a9f4    00000060     SensorTmp007.obj (.text:SensorTmp007_enable)
                  0000aa54    00000060     util.obj (.text:Util_constructClock)
                  0000aab4    00000060     RFCC26XX_singleMode.obj (.text:fsmXOSCState)
                  0000ab14    00000060     drivers_cc26xxware.aem3 : PowerCC26XX_calibrateRCOSC.oem3 (.text:updateSubSecInc)
                  0000ab74    0000005e     RFCC26XX_singleMode.obj (.text:updateImplicitState)
                  0000abd2    00000002     --HOLE-- [fill = 0]
                  0000abd4    0000005c     icall_api.obj (.text:GATTServApp_RegisterService)
                  0000ac30    0000005c     I2CCC26XX.obj (.text:I2CCC26XX_initHw)
                  0000ac8c    0000005c     icall.obj (.text:ICall_primEntityId2ServiceId)
                  0000ace8    0000005c     movementservice.obj (.text:Movement_getParameter)
                  0000ad44    0000005c     driverlib.lib : osc.obj (.text:NOROM_OSCHF_AttemptToSwitchToXosc)
                  0000ada0    0000005c                   : sys_ctrl.obj (.text:NOROM_SysCtrlAdjustRechargeAfterPowerDown)
                  0000adfc    0000005c     icall_api.obj (.text:matchGapSetGetParamCS)
                  0000ae58    0000005c     icall_api.obj (.text:matchGattCmdStatus)
                  0000aeb4    0000005c     icall_api.obj (.text:matchUtilNvCS)
                  0000af10    0000005c     SensorMpu9250.obj (.text:sensorMagEnable)
                  0000af6c    0000005c     app_ble_pem3.oem3 (.text:xdc_runtime_Startup_getState__I)
                  0000afc8    0000005a     SensorBmp280.obj (.text:SensorBmp280_read)
                  0000b022    00000002     --HOLE-- [fill = 0]
                  0000b024    00000058     icall_api.obj (.text:GAP_TerminateLinkReq)
                  0000b07c    00000058     I2C.obj (.text:I2C_init)
                  0000b0d4    00000058     icall_api.obj (.text:ICall_waitMatch)
                  0000b12c    00000058     drivers_cc26xxware.aem3 : PowerCC26XX_calibrateRCOSC.oem3 (.text:PowerCC26XX_initiateCalibration)
                  0000b184    00000058     SPICC26XXDMA.obj (.text:SPICC26XXDMA_csnCallback)
                  0000b1dc    00000058     sensortag.obj (.text:SensorTag_setDeviceInfo)
                  0000b234    00000058     SensorUtil.obj (.text:SensorUtil_convertToLe)
                  0000b28c    00000056     icall_cc2650.obj (.text:ICallPlatform_pwrNotify)
                  0000b2e2    00000056     icall.obj (.text:ICall_primCreateTask)
                  0000b338    00000056     icall_api.obj (.text:matchProfileAddServiceCS)
                  0000b38e    00000054     icall.obj (.text:ICall_primFetchMsg)
                  0000b3e2    00000002     --HOLE-- [fill = 0]
                  0000b3e4    00000054     RFCC26XX_singleMode.obj (.text:RF_getRssi)
                  0000b438    00000054     SensorI2C.obj (.text:SensorI2C_writeRead)
                  0000b48c    00000054     SensorMpu9250.obj (.text:SensorMpu9250_magTest)
                  0000b4e0    00000054     TRNGCC26XX.obj (.text:TRNGCC26XX_isParamValid)
                  0000b534    00000054     UDMACC26XX.obj (.text:UDMACC26XX_close)
                  0000b588    00000054     drivers_cc26xxware.aem3 : PowerCC26XX.oem3 (.text:configureXOSCHF)
                  0000b5dc    00000054     icall_api.obj (.text:profileSetParameter)
                  0000b630    00000054     rtsv7M3_T_le_eabi.lib : exit.obj (.text)
                  0000b684    00000052     icall.obj (.text:ICall_msgEnqueue)
                  0000b6d6    00000052     icall_api.obj (.text:gapSendParamAndPtrCmd)
                  0000b728    00000050     battservice.obj (.text:Batt_SetParameter)
                  0000b778    00000050     icall_api.obj (.text:GAPBondMgr_SetParameter)
                  0000b7c8    00000050     icall_api.obj (.text:ICall_sendServiceMsg)
                  0000b818    00000050     driverlib.lib : setup.obj (.text:NOROM_SetupSetCacheModeAccordingToCcfgSetting)
                  0000b868    00000050     RFCC26XX_singleMode.obj (.text:allocCmd)
                  0000b8b8    00000050     battservice.obj (.text:battNotifyLevel)
                  0000b908    00000050     gattservapp_util.obj (.text:gattServApp_FindCharCfgItem)
                  0000b958    00000050     icall_api.obj (.text:osal_snv_read)
                  0000b9a8    00000050     icall_api.obj (.text:osal_snv_write)
                  0000b9f8    00000050     SensorMpu9250.obj (.text:sensorMpu9250SelectAxes)
                  0000ba48    00000050     SensorMpu9250.obj (.text:sensorMpuSleep)
                  0000ba98    0000004e     gattservapp_util.obj (.text:GATTServApp_FindAttr)
                  0000bae6    00000002     --HOLE-- [fill = 0]
                  0000bae8    0000004c     battservice.obj (.text:Batt_AddService)
                  0000bb34    0000004c     ExtFlash.obj (.text:ExtFlash_waitReady)
                  0000bb80    0000004c     icall_cc2650.obj (.text:ICallPlatform_pwrConfigACAction)
                  0000bbcc    0000004c     ioservice.obj (.text:Io_getParameter)
                  0000bc18    0000004c     driverlib.lib : osc.obj (.text:NOROM_OSCClockSourceSet)
                  0000bc64    0000004c     SensorI2C.obj (.text:SensorI2C_read)
                  0000bcb0    0000004c     SensorI2C.obj (.text:SensorI2C_write)
                  0000bcfc    0000004c     sensortag_io.obj (.text:SensorTagIO_reset)
                  0000bd48    0000004c     ExtFlash.obj (.text:Spi_open)
                  0000bd94    0000004c     battservice.obj (.text:battMeasure)
                  0000bde0    0000004c     peripheral.obj (.text:gapRole_HandleParamUpdateNoSuccess)
                  0000be2c    0000004c     rtsv7M3_T_le_eabi.lib : cpy_tbl.obj (.text)
                  0000be78    0000004c     SensorMpu9250.obj (.text:sensorMpu9250SetBypass)
                  0000bec4    0000004a     gattservapp_util.obj (.text:GATTServApp_WriteCharCfg)
                  0000bf0e    0000004a     icall.obj (.text:ICall_msgPrepend)
                  0000bf58    0000004a     SPICC26XXDMA.obj (.text:SPICC26XXDMA_flushFifos)
                  0000bfa2    0000004a     icall_api.obj (.text:gapSendParamsCmd)
                  0000bfec    0000004a     icall_api.obj (.text:matchProfileCS)
                  0000c036    00000002     --HOLE-- [fill = 0]
                  0000c038    00000048     ExtFlash.obj (.text:ExtFlash_readInfo)
                  0000c080    00000048     icall_api.obj (.text:GAP_GetParamValue)
                  0000c0c8    00000048     icall_api.obj (.text:GAP_SetParamValue)
                  0000c110    00000048     I2C.obj (.text:I2C_open)
                  0000c158    00000048     driverlib.lib : chipinfo.obj (.text:NOROM_ChipInfo_GetChipFamily)
                  0000c1a0    00000048                   : ddi.obj (.text:NOROM_DDI16BitfieldWrite)
                  0000c1e8    00000048     PINCC26XX.obj (.text:PINCC26XX_setIoCfgMux)
                  0000c230    00000048     SPICC26XXDMA.obj (.text:SPICC26XXDMA_swiFxn)
                  0000c278    00000048     SPI.obj (.text:SPI_open)
                  0000c2c0    00000048     SensorMpu9250.obj (.text:SensorMpu9250_accReadRange)
                  0000c308    00000048     SensorMpu9250.obj (.text:SensorMpu9250_enable)
                  0000c350    00000048     sensortag.obj (.text:SensorTag_enqueueMsg)
                  0000c398    00000048     util.obj (.text:Util_restartClock)
                  0000c3e0    00000048     icall_api.obj (.text:gapSendPtrParamsCmd)
                  0000c428    00000048     drivers_cc26xxware.aem3 : PowerCC26XX.oem3 (.text:notify)
                  0000c470    00000048     RFCC26XX_singleMode.obj (.text:postDirImmCmd)
                  0000c4b8    00000046     SensorMpu9250.obj (.text:SensorMpu9250_accRead)
                  0000c4fe    00000046     SensorMpu9250.obj (.text:SensorMpu9250_gyroRead)
                  0000c544    00000044     barometerservice.obj (.text:Barometer_addService)
                  0000c588    00000044     humidityservice.obj (.text:Humidity_addService)
                  0000c5cc    00000044     peripheral.obj (.text:ICall_fetchServiceMsg)
                  0000c610    00000044     sensortag.obj (.text:ICall_fetchServiceMsg)
                  0000c654    00000044     icall_api.obj (.text:ICall_getLocalMsgEntityId)
                  0000c698    00000044     irtempservice.obj (.text:IRTemp_addService)
                  0000c6dc    00000044     ioservice.obj (.text:Io_addService)
                  0000c720    00000044     movementservice.obj (.text:Movement_addService)
                  0000c764    00000044     opticservice.obj (.text:Optic_addService)
                  0000c7a8    00000044     PINCC26XX.obj (.text:PIN_setInterrupt)
                  0000c7ec    00000044     SensorBmp280.obj (.text:SensorBmp280_init)
                  0000c830    00000044     sensortag_buzzer.obj (.text:SensorTagBuzzer_open)
                  0000c874    00000044     boot.aem3 : boot.oem3 (.text)
                  0000c8b8    00000044     icall_api.obj (.text:profileAddService)
                  0000c8fc    00000040     icall_cc2650.obj (.text:ICallPlatform_pwrDispenseImpl)
                  0000c93c    00000040     icall_cc2650.obj (.text:ICallPlatform_pwrRequireImpl)
                  0000c97c    00000040     icall.obj (.text:ICall_heapFree)
                  0000c9bc    00000040     driverlib.lib : ddi.obj (.text:NOROM_DDI16BitfieldRead)
                  0000c9fc    00000040     PINCC26XX.obj (.text:PINCC26XX_setMux)
                  0000ca3c    00000040     PINCC26XX.obj (.text:PIN_setConfig)
                  0000ca7c    00000040     PINCC26XX.obj (.text:PIN_setOutputValue)
                  0000cabc    00000040     sensortag_opt.obj (.text:SensorTagOpt_reset)
                  0000cafc    00000040     ExtFlash.obj (.text:extFlashPowerStandby)
                  0000cb3c    0000003e     icall.obj (.text:ICall_msgDequeue)
                  0000cb7a    0000003e     util.obj (.text:Util_enqueueMsg)
                  0000cbb8    0000003e     icall_api.obj (.text:matchGattIndNotiCS)
                  0000cbf6    00000002     --HOLE-- [fill = 0]
                  0000cbf8    0000003c     icall_api.obj (.text:GATT_bm_alloc)
                  0000cc34    0000003c     barometerservice.obj (.text:ICall_malloc)
                  0000cc70    0000003c     battservice.obj (.text:ICall_malloc)
                  0000ccac    0000003c     devinfoservice.obj (.text:ICall_malloc)
                  0000cce8    0000003c     humidityservice.obj (.text:ICall_malloc)
                  0000cd24    0000003c     ioservice.obj (.text:ICall_malloc)
                  0000cd60    0000003c     irtempservice.obj (.text:ICall_malloc)
                  0000cd9c    0000003c     movementservice.obj (.text:ICall_malloc)
                  0000cdd8    0000003c     opticservice.obj (.text:ICall_malloc)
                  0000ce14    0000003c     sensortag.obj (.text:ICall_malloc)
                  0000ce50    0000003c     util.obj (.text:ICall_malloc)
                  0000ce8c    0000003c     icall.obj (.text:ICall_primAllocMsg)
                  0000cec8    0000003c     peripheral.obj (.text:ICall_registerApp)
                  0000cf04    0000003c     sensortag.obj (.text:ICall_registerApp)
                  0000cf40    0000003c     sensortag_bar.obj (.text:ICall_registerApp)
                  0000cf7c    0000003c     sensortag_hum.obj (.text:ICall_registerApp)
                  0000cfb8    0000003c     sensortag_tmp.obj (.text:ICall_registerApp)
                  0000cff4    0000003c     icall_api.obj (.text:ICall_threadServes)
                  0000d030    0000003c     driverlib.lib : osc.obj (.text:NOROM_OSC_HPOSCRelativeFrequencyOffsetGet)
                  0000d06c    0000003c                   : rfc.obj (.text:NOROM_RFCSynthPowerDown)
                  0000d0a8    0000003c     SensorMpu9250.obj (.text:SensorMpu9250_irqStatus)
                  0000d0e4    0000003c     icall_api.obj (.text:linkDB_NumConns)
                  0000d120    0000003c     main.obj (.text:main)
                  0000d15c    00000008     (.tramp.ti_sysbios_BIOS_start__E.1)
                  0000d164    0000003a     SensorOpt3001.obj (.text:SensorOpt3001_enable)
                  0000d19e    00000002     --HOLE-- [fill = 0]
                  0000d1a0    00000038     ExtFlash.obj (.text:ExtFlash_close)
                  0000d1d8    00000038     peripheral.obj (.text:GAPRole_createTask)
                  0000d210    00000008     (.tramp.ti_sysbios_knl_Task_construct.1)
                  0000d218    00000038     icall_api.obj (.text:ICall_allocMsg)
                  0000d250    00000038     SensorMpu9250.obj (.text:SensorMpu9250_init)
                  0000d288    00000038     sensortag_bar.obj (.text:SensorTagBar_createTask)
                  0000d2c0    00000038     sensortag_bar.obj (.text:SensorTagBar_init)
                  0000d2f8    00000038     sensortag_hum.obj (.text:SensorTagHum_createTask)
                  0000d330    00000038     sensortag_tmp.obj (.text:SensorTagTmp_createTask)
                  0000d368    00000038     sensortag.obj (.text:SensorTag_createTask)
                  0000d3a0    00000038     ExtFlash.obj (.text:Spi_read)
                  0000d3d8    00000038     ExtFlash.obj (.text:Spi_write)
                  0000d410    00000038     rtsv7M3_T_le_eabi.lib : fs_tod_t2.obj (.text)
                  0000d448    00000038     SPICC26XXDMA.obj (.text:threadSafeConstraintRelease)
                  0000d480    00000038     SPICC26XXDMA.obj (.text:threadSafeConstraintSet)
                  0000d4b8    00000038     rom_sysbios.aem3 : rom_sysbios.obj (.text:ti_sysbios_family_arm_cc26xx_Timer_getCurrentTick__E)
                  0000d4f0    00000036     icall.obj (.text:ICall_primFetchServiceMsg)
                  0000d526    00000036     icall.obj (.text:ICall_primRegisterISR_Ext)
                  0000d55c    00000008     (.tramp.ti_sysbios_hal_Hwi_create.1)
                  0000d564    00000036     SensorBmp280.obj (.text:SensorBmp280_enable)
                  0000d59a    00000034     icall_api.obj (.text:GAPBondMgr_LinkTerm)
                  0000d5ce    00000002     --HOLE-- [fill = 0]
                  0000d5d0    00000034     peripheral.obj (.text:GAPRole_TerminateConnection)
                  0000d604    00000034     icall.obj (.text:ICall_primRegisterISR)
                  0000d638    00000034     icall.obj (.text:ICall_searchService)
                  0000d66c    00000034     driverlib.lib : osc.obj (.text:NOROM_OSCHF_SwitchToRcOscTurnOffXosc)
                  0000d6a0    00000034                   : trng.obj (.text:NOROM_TRNGConfigure)
                  0000d6d4    00000034     drivers_cc26xxware.aem3 : PowerCC26XX.oem3 (.text:PowerCC26XX_isStableXOSC_HF)
                  0000d708    00000034     SensorHdc1000.obj (.text:SensorHdc1000_init)
                  0000d73c    00000034     sensortag_batt.obj (.text:SensorTagBatt_init)
                  0000d770    00000034     RFCC26XX_singleMode.obj (.text:clkPowerUpFxn)
                  0000d7a4    00000032     ExtFlash.obj (.text:ExtFlash_powerDown)
                  0000d7d6    00000032     icall_api.obj (.text:setICallCmdEvtHdr)
                  0000d808    00000032     rom_sysbios.aem3 : rom_sysbios.obj (.text:ti_sysbios_family_arm_cc26xx_Timer_setNextTick__E)
                  0000d83a    00000002     --HOLE-- [fill = 0]
                  0000d83c    00000030     battservice.obj (.text:Batt_MeasLevel)
                  0000d86c    00000030     icall_api.obj (.text:GAPBondMgr_Register)
                  0000d89c    00000030     icall_api.obj (.text:GGS_SetParameter)
                  0000d8cc    00000030     icall.obj (.text:ICall_dispatch)
                  0000d8fc    00000030     driverlib.lib : setup.obj (.text:NOROM_SetupSetAonRtcSubSecInc)
                  0000d92c    00000030     drivers_cc26xxware.aem3 : PowerCC26XX.oem3 (.text:Power_releaseConstraint)
                  0000d95c    00000030                             : PowerCC26XX.oem3 (.text:Power_setConstraint)
                  0000d98c    00000030     SensorHdc1000.obj (.text:SensorHdc1000_start)
                  0000d9bc    00000030     SensorMpu9250.obj (.text:SensorMpu9250_powerOn)
                  0000d9ec    00000030     sensortag_hum.obj (.text:SensorTagHum_init)
                  0000da1c    00000030     TRNGCC26XX.obj (.text:TRNGCC26XX_init)
                  0000da4c    00000030     peripheral.obj (.text:gapRole_SetupGAP)
                  0000da7c    00000030     sensortag_bar.obj (.text:initCharacteristicValue)
                  0000daac    00000030     sensortag_hum.obj (.text:initCharacteristicValue)
                  0000dadc    00000030     sensortag_mov.obj (.text:initCharacteristicValue)
                  0000db0c    00000030     sensortag_opt.obj (.text:initCharacteristicValue)
                  0000db3c    00000030     sensortag_tmp.obj (.text:initCharacteristicValue)
                  0000db6c    00000030     app_ble_pem3.oem3 (.text:ti_sysbios_BIOS_atExitFunc__I)
                  0000db9c    00000008     (.tramp.ti_sysbios_BIOS_setThreadType__E.1)
                  0000dba4    00000030     app_ble_pem3.oem3 (.text:ti_sysbios_BIOS_startFunc__I)
                  0000dbd4    00000008     (.tramp.xdc_runtime_System_atexit__E.1)
                  0000dbdc    00000008     (.tramp.ti_sysbios_family_arm_cc26xx_Timer_startup__E.1)
                  0000dbe4    00000008     (.tramp.ti_sysbios_hal_Hwi_startup__E.1)
                  0000dbec    00000008     (.tramp.ti_sysbios_knl_Swi_startup__E.1)
                  0000dbf4    00000008     (.tramp.ti_sysbios_knl_Task_startup__E.1)
                  0000dbfc    00000030     rom_sysbios.aem3 : rom_sysbios.obj (.text:ti_sysbios_family_arm_cc26xx_Timer_initDevice__I)
                  0000dc2c    00000030                      : rom_sysbios.obj (.text:ti_sysbios_family_arm_cc26xx_Timer_setThreshold__I)
                  0000dc5c    0000002e     icall_api.obj (.text:GATT_Indication)
                  0000dc8a    0000002e     icall.obj (.text:ICall_primSendServiceMsg)
                  0000dcb8    0000002e     sensortag.obj (.text:SensorTag_processAppMsg)
                  0000dce6    0000002e     ExtFlash.obj (.text:extFlashPowerDown)
                  0000dd14    0000002e     icall_api.obj (.text:matchProfileSetParamCS)
                  0000dd42    0000002e     icall_api.obj (.text:setDispatchCmdEvtHdr)
                  0000dd70    0000002c     icall_api.obj (.text:GATT_Notification)
                  0000dd9c    0000002c     devinfoservice.obj (.text:ICall_free)
                  0000ddc8    0000002c     sensortag.obj (.text:ICall_free)
                  0000ddf4    0000002c     util.obj (.text:ICall_free)
                  0000de20    0000002c     icall.obj (.text:ICall_freeMsg)
                  0000de4c    0000002c     icall_api.obj (.text:ICall_freeMsg)
                  0000de78    0000002c     peripheral.obj (.text:ICall_freeMsg)
                  0000dea4    0000002c     sensortag.obj (.text:ICall_freeMsg)
                  0000ded0    0000002c     icall_api.obj (.text:ICall_getEntityId)
                  0000defc    0000002c     peripheral.obj (.text:ICall_wait)
                  0000df28    0000002c     sensortag.obj (.text:ICall_wait)
                  0000df54    0000002c     driverlib.lib : ddi.obj (.text:NOROM_DDI32RegWrite)
                  0000df80    0000002c                   : setup.obj (.text:NOROM_SetupGetTrimForRadcExtCfg)
                  0000dfac    0000002c     PINCC26XX.obj (.text:PINCC26XX_getPinCount)
                  0000dfd8    0000002c     PINCC26XX.obj (.text:PIN_hwi)
                  0000e004    0000002c     sensortag_batt.obj (.text:SensorTagBatt_processCharChangeEvt)
                  0000e030    0000002c     sensortag_buzzer.obj (.text:SensorTagBuzzer_close)
                  0000e05c    0000002c     sensortag_io.obj (.text:SensorTagIO_init)
                  0000e088    0000002c     sensortag_mov.obj (.text:SensorTagMov_reset)
                  0000e0b4    0000002c     sensortag_tmp.obj (.text:SensorTagTmp_init)
                  0000e0e0    0000002c     UDMACC26XX.obj (.text:UDMACC26XX_initHw)
                  0000e10c    0000002c     icall_api.obj (.text:getStatusValueFromErrNo)
                  0000e138    0000002c     RFCC26XX_singleMode.obj (.text:hwiFxnCpe0PowerFsm)
                  0000e164    0000002c     rom_sysbios.aem3 : rom_sysbios.obj (.text:ti_sysbios_knl_Clock_getTicksUntilInterrupt__E)
                  0000e190    0000002a     sensortag_buzzer.obj (.text:TimerLoadSet)
                  0000e1ba    0000002a     sensortag_buzzer.obj (.text:TimerMatchSet)
                  0000e1e4    0000002a     sensortag_buzzer.obj (.text:TimerPrescaleMatchSet)
                  0000e20e    0000002a     sensortag_buzzer.obj (.text:TimerPrescaleSet)
                  0000e238    0000002a     SPICC26XXDMA.obj (.text:UDMACC26XX_channelDone)
                  0000e262    00000002     --HOLE-- [fill = 0]
                  0000e264    00000028     peripheral.obj (.text:GAPRole_StartDevice)
                  0000e28c    00000028     I2CCC26XX.obj (.text:I2CMasterSlaveAddrSet)
                  0000e2b4    00000028     icall.obj (.text:ICall_primService)
                  0000e2dc    00000028     driverlib.lib : aon_batmon.obj (.text:NOROM_AONBatMonTemperatureGetDegC)
                  0000e304    00000028     drivers_cc26xxware.aem3 : PowerCC26XX.oem3 (.text:PowerCC26XX_switchXOSC_HF)
                  0000e32c    00000028                             : PowerCC26XX.oem3 (.text:Power_registerNotify)
                  0000e354    00000028     driverlib.lib : adi.obj (.text:SafeHapiVoid)
                  0000e37c    00000028     SensorMpu9250.obj (.text:SensorMpu9250_powerOff)
                  0000e3a4    00000028     sensortag_bar.obj (.text:SensorTagBar_reset)
                  0000e3cc    00000028     sensortag_batt.obj (.text:SensorTagBatt_reset)
                  0000e3f4    00000028     sensortag_opt.obj (.text:SensorTagOpt_clockHandler)
                  0000e41c    00000028     sensortag_tmp.obj (.text:SensorTagTmp_reset)
                  0000e444    00000028     TRNGCC26XX.obj (.text:TRNGCC26XX_open)
                  0000e46c    00000028     util.obj (.text:Util_dequeueMsg)
                  0000e494    00000008     (.tramp.ti_sysbios_knl_Queue_get__E.1)
                  0000e49c    00000028     rom_sysbios.aem3 : rom_sysbios.obj (.text:ti_sysbios_family_arm_cc26xx_Timer_getMaxTicks__E)
                  0000e4c4    00000028     icall_api.obj (.text:waitMatchCS)
                  0000e4ec    00000026     main.obj (.text:AssertHandler)
                  0000e512    00000026     icall.obj (.text:ICall_primSetTimerMSecs)
                  0000e538    00000026     drivers_cc26xxware.aem3 : List.oem3 (.text:List_put)
                  0000e55e    00000002     --HOLE-- [fill = 0]
                  0000e560    00000024     barometerservice.obj (.text:Barometer_registerAppCBs)
                  0000e584    00000024     icall_api.obj (.text:GATT_bm_free)
                  0000e5a8    00000024     humidityservice.obj (.text:Humidity_registerAppCBs)
                  0000e5cc    00000024     I2CCC26XX.obj (.text:I2CCC26XX_blockingCallback)
                  0000e5f0    00000024     irtempservice.obj (.text:IRTemp_registerAppCBs)
                  0000e614    00000024     movementservice.obj (.text:Movement_registerAppCBs)
                  0000e638    00000024     opticservice.obj (.text:Optic_registerAppCBs)
                  0000e65c    00000024     PINCC26XX.obj (.text:PINCC26XX_setOutputValue)
                  0000e680    00000024     PINCC26XX.obj (.text:PIN_close)
                  0000e6a4    00000024     RFCC26XX_singleMode.obj (.text:Q_pop)
                  0000e6c8    00000024     RFCC26XX_singleMode.obj (.text:RF_runDirectCmd)
                  0000e6ec    00000024     RFCC26XX_singleMode.obj (.text:RF_runImmediateCmd)
                  0000e710    00000024     SensorMpu9250.obj (.text:SensorMpu9250_Callback)
                  0000e734    00000024     sensortag_hum.obj (.text:SensorTagHum_reset)
                  0000e758    00000024     sensortag_mov.obj (.text:SensorTagMov_processInterrupt)
                  0000e77c    00000024     sensortag.obj (.text:SensorTag_updateAdvertisingData)
                  0000e7a0    00000024     drivers_cc26xxware.aem3 : PowerCC26XX_calibrateRCOSC.oem3 (.text:getTdcSemaphore)
                  0000e7c4    00000024     app_ble_pem3.oem3 (.text:ti_sysbios_BIOS_registerRTSLock__I)
                  0000e7e8    00000024     app_ble_pem3.oem3 (.text:ti_sysbios_BIOS_removeRTSLock__I)
                  0000e80c    00000022     gattservapp_util.obj (.text:GATTServApp_ReadCharCfg)
                  0000e82e    00000022     icall.obj (.text:ICall_primStopTimer)
                  0000e850    00000022     I2CCC26XX.obj (.text:i2cPostNotify)
                  0000e872    00000022     icall_api.obj (.text:matchGSARegisterServiceCS)
                  0000e894    00000022     icall_api.obj (.text:matchGapLinkEstCS)
                  0000e8b6    00000022     icall_api.obj (.text:matchLinkDBNumConnsCS)
                  0000e8d8    00000022     rtsv7M3_T_le_eabi.lib : memcmp.obj (.text)
                  0000e8fa    00000002     --HOLE-- [fill = 0]
                  0000e8fc    00000020     icall_api.obj (.text:GAP_TerminateAuth)
                  0000e91c    00000020     I2CCC26XX.obj (.text:I2CMasterDisable)
                  0000e93c    00000020     I2CCC26XX.obj (.text:I2CMasterEnable)
                  0000e95c    00000020     icall_cc2650.obj (.text:ICallPlatform_pwrDispense)
                  0000e97c    00000020     icall_cc2650.obj (.text:ICallPlatform_pwrRequire)
                  0000e99c    00000020     icall.obj (.text:ICall_abort)
                  0000e9bc    00000020     icall.obj (.text:ICall_initPrim)
                  0000e9dc    00000020     icall.obj (.text:ICall_primMalloc)
                  0000e9fc    00000020     ioservice.obj (.text:Io_registerAppCBs)
                  0000ea1c    00000020     driverlib.lib : rfc.obj (.text:NOROM_RFCDoorbellSendTo)
                  0000ea3c    00000020                   : rfc.obj (.text:NOROM_RFCRfTrimRead)
                  0000ea5c    00000020                   : setup.obj (.text:NOROM_SetupGetTrimForXoscHfCtl)
                  0000ea7c    00000020     PINCC26XX.obj (.text:PINCC26XX_getOutputValue)
                  0000ea9c    00000020     PINCC26XX.obj (.text:PIN_getConfig)
                  0000eabc    00000020     drivers_cc26xxware.aem3 : PowerCC26XX.oem3 (.text:Power_unregisterNotify)
                  0000eadc    00000020     RFCC26XX_singleMode.obj (.text:RF_flushCmd)
                  0000eafc    00000020     RFCC26XX_singleMode.obj (.text:RF_getCmdOp)
                  0000eb1c    00000020     SPICC26XXDMA.obj (.text:SPICC26XXDMA_init)
                  0000eb3c    00000020     sensortag.obj (.text:SensorTag_clockHandler)
                  0000eb5c    00000020     sensortag.obj (.text:SensorTag_resetAllModules)
                  0000eb7c    00000020     peripheral.obj (.text:gapRole_setEvent)
                  0000eb9c    00000020     TRNGCC26XX.obj (.text:openTRNG)
                  0000ebbc    00000020     rtsv7M3_T_le_eabi.lib : u_tofd_t2.obj (.text)
                  0000ebdc    00000020     app_ble_pem3.oem3 (.text:ti_sysbios_BIOS_rtsLock__I)
                  0000ebfc    00000008     (.tramp.ti_sysbios_BIOS_RtsGateProxy_enter__E.1)
                  0000ec04    00000020     rom_sysbios.aem3 : rom_sysbios.obj (.text:ti_sysbios_knl_Clock_stop__E)
                  0000ec24    0000001e     drivers_cc26xxware.aem3 : PowerCC26XX.oem3 (.text:Power_getTransitionLatency)
                  0000ec42    0000001e     ExtFlash.obj (.text:SSIBusy)
                  0000ec60    0000001e     SPICC26XXDMA.obj (.text:SSIIntStatus)
                  0000ec7e    0000001e     sensortag.obj (.text:SensorTag_callback)
                  0000ec9c    0000001e     sensortag_buzzer.obj (.text:TimerDisable)
                  0000ecba    0000001e     sensortag_buzzer.obj (.text:TimerEnable)
                  0000ecd8    0000001e     icall_api.obj (.text:matchBondMgrSetParamCS)
                  0000ecf6    0000001e     icall_api.obj (.text:matchGGSSetParamCS)
                  0000ed14    0000001e     icall_api.obj (.text:matchGapConnParamUpdateReplyCS)
                  0000ed32    0000001e     icall_api.obj (.text:matchGapDeviceInitCS)
                  0000ed50    0000001e     icall_api.obj (.text:matchGapEndDiscoverableCS)
                  0000ed6e    0000001e     icall_api.obj (.text:matchGapGetParamCS)
                  0000ed8c    0000001e     icall_api.obj (.text:matchGapMakeDiscoverableCS)
                  0000edaa    0000001e     icall_api.obj (.text:matchGapSetParamCS)
                  0000edc8    0000001e     icall_api.obj (.text:matchGapTerminateAuthCS)
                  0000ede6    0000001e     icall_api.obj (.text:matchGapTerminateLinkReqCS)
                  0000ee04    0000001e     icall_api.obj (.text:matchGapUpdateAdvDataCS)
                  0000ee22    0000001e     icall_api.obj (.text:matchGapUpdateLinkParamReqCS)
                  0000ee40    0000001e     icall_api.obj (.text:matchUtilNvReadCS)
                  0000ee5e    0000001e     icall_api.obj (.text:matchUtilNvWriteCS)
                  0000ee7c    0000001c     icall_api.obj (.text:GAP_EndDiscoverable)
                  0000ee98    0000001c     icall_api.obj (.text:GAP_MakeDiscoverable)
                  0000eeb4    0000001c     I2CCC26XX.obj (.text:I2CMasterBusBusy)
                  0000eed0    0000001c     I2CCC26XX.obj (.text:I2CMasterDataPut)
                  0000eeec    0000001c     driverlib.lib : osc.obj (.text:NOROM_OSCClockSourceGet)
                  0000ef08    0000001c                   : setup.obj (.text:NOROM_SetupGetTrimForAmpcompTh2)
                  0000ef24    0000001c                   : setup.obj (.text:NOROM_SetupGetTrimForRcOscLfRtuneCtuneTrim)
                  0000ef40    0000001c     PINCC26XX.obj (.text:PIN_registerIntCb)
                  0000ef5c    0000001c     RFCC26XX_singleMode.obj (.text:RF_cancelCmd)
                  0000ef78    0000001c     SensorI2C.obj (.text:SensorI2C_readReg)
                  0000ef94    0000001c     sensortag_batt.obj (.text:SensorTagBatt_clockHandler)
                  0000efb0    0000001c     sensortag_mov.obj (.text:SensorTagMov_clockHandler)
                  0000efcc    0000001c     ExtFlash.obj (.text:Spi_close)
                  0000efe8    0000001c     util.obj (.text:Util_isActive)
                  0000f004    0000001c     ble_user_config.obj (.text:driverTable_fnSpinlock)
                  0000f020    0000001c     SPICC26XXDMA.obj (.text:spiPostNotify)
                  0000f03c    0000001c     RFCC26XX_singleMode.obj (.text:swiFxnFsm)
                  0000f058    0000001c     rom_sysbios.aem3 : rom_sysbios.obj (.text:ti_sysbios_family_arm_cc26xx_Timer_dynamicStub__E)
                  0000f074    0000001a     ExtFlash.obj (.text:ExtFlash_test)
                  0000f08e    0000001a     icall.obj (.text:ICall_leaveCSImpl)
                  0000f0a8    0000001a     drivers_cc26xxware.aem3 : List.oem3 (.text:List_remove)
                  0000f0c2    0000001a     SPICC26XXDMA.obj (.text:SPICC26XXDMA_transferCallback)
                  0000f0dc    0000001a     SensorMpu9250.obj (.text:SensorMpu9250_powerIsOn)
                  0000f0f6    0000001a     sensortag.obj (.text:SensorTag_charValueChangeCB)
                  0000f110    0000001a     sensortag.obj (.text:SensorTag_processStackMsg)
                  0000f12a    0000001a     SPICC26XXDMA.obj (.text:UDMACC26XX_channelEnable)
                  0000f144    00000018     devinfoservice.obj (.text:DevInfo_AddService)
                  0000f15c    00000018     RFCC26XX_singleMode.obj (.text:FsmDispatch)
                  0000f174    00000018     icall_api.obj (.text:GAP_UpdateLinkParamReq)
                  0000f18c    00000018     icall_api.obj (.text:GAP_UpdateLinkParamReqReply)
                  0000f1a4    00000018     I2CCC26XX.obj (.text:I2CCC26XX_init)
                  0000f1bc    00000018     I2CCC26XX.obj (.text:I2CMasterControl)
                  0000f1d4    00000018     icall.obj (.text:ICall_primGetTickPeriod)
                  0000f1ec    00000018     icall.obj (.text:ICall_taskEntry)
                  0000f204    00000018     driverlib.lib : aon_rtc.obj (.text:NOROM_AONRTCCurrentCompareValueGet)
                  0000f21c    00000018                   : chipinfo.obj (.text:NOROM_ChipInfo_GetPackageType)
                  0000f234    00000018                   : osc.obj (.text:NOROM_OSCHF_TurnOnXosc)
                  0000f24c    00000018                   : rfc.obj (.text:NOROM_RFCCpeIntGetAndClear)
                  0000f264    00000018                   : setup.obj (.text:NOROM_SetupGetTrimForAdcShModeEn)
                  0000f27c    00000018                   : setup.obj (.text:NOROM_SetupGetTrimForAdcShVbufEn)
                  0000f294    00000018                   : setup.obj (.text:NOROM_SetupGetTrimForAmpcompTh1)
                  0000f2ac    00000018                   : setup.obj (.text:NOROM_SetupGetTrimForDblrLoopFilterResetVoltage)
                  0000f2c4    00000018                   : setup.obj (.text:NOROM_SetupGetTrimForRcOscLfIBiasTrim)
                  0000f2dc    00000018                   : setup.obj (.text:NOROM_SetupGetTrimForXoscLfRegulatorAndCmirrwrRatio)
                  0000f2f4    00000018     drivers_cc26xxware.aem3 : PowerCC26XX.oem3 (.text:Power_idleFunc)
                  0000f30c    00000018     RFCC26XX_singleMode.obj (.text:RF_Params_init)
                  0000f324    00000018     SPI.obj (.text:SPI_Params_init)
                  0000f33c    00000018     SPICC26XXDMA.obj (.text:SSIDMADisable)
                  0000f354    00000018     SPICC26XXDMA.obj (.text:SSIDMAEnable)
                  0000f36c    00000018     SPICC26XXDMA.obj (.text:SSIIntDisable)
                  0000f384    00000018     SPICC26XXDMA.obj (.text:SSIIntEnable)
                  0000f39c    00000018     sensortag_batt.obj (.text:SensorTagBatt_processSensorEvent)
                  0000f3b4    00000018     ExtFlash.obj (.text:Spi_flash)
                  0000f3cc    00000018     SPICC26XXDMA.obj (.text:UDMACC26XX_channelDisable)
                  0000f3e4    00000018     UDMACC26XX.obj (.text:UDMACC26XX_channelDisable)
                  0000f3fc    00000018     SPICC26XXDMA.obj (.text:UDMACC26XX_clearInterrupt)
                  0000f414    00000018     drivers_cc26xxware.aem3 : PowerCC26XX.oem3 (.text:configureRFCoreClocks)
                  0000f42c    00000018     rtsv7M3_T_le_eabi.lib : args_main.obj (.text)
                  0000f444    00000018                           : ll_mul_t2.obj (.text)
                  0000f45c    00000018     app_ble_pem3.oem3 (.text:ti_sysbios_BIOS_rtsUnlock__I)
                  0000f474    00000008     (.tramp.ti_sysbios_BIOS_RtsGateProxy_leave__E.1)
                  0000f47c    00000018     rom_sysbios.aem3 : rom_sysbios.obj (.text:ti_sysbios_knl_Swi_or__E)
                  0000f494    00000018     app_ble_pem3.oem3 (.text:ti_sysbios_rom_cortexm_cc26xx_CC26xx_checkRevision__E)
                  0000f4ac    00000016     I2C.obj (.text:I2C_transfer)
                  0000f4c2    00000016     icall.obj (.text:ICall_clockFunc)
                  0000f4d8    00000016     icall.obj (.text:ICall_enterCSImpl)
                  0000f4ee    00000016     icall.obj (.text:ICall_primFreeMsg)
                  0000f504    00000016     SPICC26XXDMA.obj (.text:PIN_setUserArg)
                  0000f51a    00000016     SPI.obj (.text:SPI_transfer)
                  0000f530    00000016     SPICC26XXDMA.obj (.text:SSIDisable)
                  0000f546    00000016     SPICC26XXDMA.obj (.text:SSIEnable)
                  0000f55c    00000016     icall_api.obj (.text:gattAddService)
                  0000f572    00000016     app_ble_pem3.oem3 (.text:ti_sysbios_BIOS_exitFunc__I)
                  0000f588    00000016     I2CCC26XX.obj (.text:ti_sysbios_family_arm_m3_Hwi_Params_init)
                  0000f59e    00000002     --HOLE-- [fill = 0]
                  0000f5a0    00000008     (.tramp.ti_sysbios_family_arm_m3_Hwi_Params__init__S.1)
                  0000f5a8    00000016     PINCC26XX.obj (.text:ti_sysbios_family_arm_m3_Hwi_Params_init)
                  0000f5be    00000016     RFCC26XX_singleMode.obj (.text:ti_sysbios_family_arm_m3_Hwi_Params_init)
                  0000f5d4    00000016     SPICC26XXDMA.obj (.text:ti_sysbios_family_arm_m3_Hwi_Params_init)
                  0000f5ea    00000016     UDMACC26XX.obj (.text:ti_sysbios_family_arm_m3_Hwi_Params_init)
                  0000f600    00000016     icall.obj (.text:ti_sysbios_hal_Hwi_Params_init)
                  0000f616    00000016     RFCC26XX_singleMode.obj (.text:ti_sysbios_knl_Clock_Params_init)
                  0000f62c    00000016     icall.obj (.text:ti_sysbios_knl_Clock_Params_init)
                  0000f642    00000016     util.obj (.text:ti_sysbios_knl_Clock_Params_init)
                  0000f658    00000016     I2CCC26XX.obj (.text:ti_sysbios_knl_Semaphore_Params_init)
                  0000f66e    00000002     --HOLE-- [fill = 0]
                  0000f670    00000008     (.tramp.ti_sysbios_knl_Semaphore_Params__init__S.1)
                  0000f678    00000016     PINCC26XX.obj (.text:ti_sysbios_knl_Semaphore_Params_init)
                  0000f68e    00000016     RFCC26XX_singleMode.obj (.text:ti_sysbios_knl_Semaphore_Params_init)
                  0000f6a4    00000016     SPICC26XXDMA.obj (.text:ti_sysbios_knl_Semaphore_Params_init)
                  0000f6ba    00000016     SensorI2C.obj (.text:ti_sysbios_knl_Semaphore_Params_init)
                  0000f6d0    00000016     I2CCC26XX.obj (.text:ti_sysbios_knl_Swi_Params_init)
                  0000f6e6    00000002     --HOLE-- [fill = 0]
                  0000f6e8    00000008     (.tramp.ti_sysbios_knl_Swi_Params__init__S.1)
                  0000f6f0    00000016     PINCC26XX.obj (.text:ti_sysbios_knl_Swi_Params_init)
                  0000f706    00000016     RFCC26XX_singleMode.obj (.text:ti_sysbios_knl_Swi_Params_init)
                  0000f71c    00000016     SPICC26XXDMA.obj (.text:ti_sysbios_knl_Swi_Params_init)
                  0000f732    00000016     icall.obj (.text:ti_sysbios_knl_Task_Params_init)
                  0000f748    00000008     (.tramp.ti_sysbios_knl_Task_Params__init__S.1)
                  0000f750    00000016     peripheral.obj (.text:ti_sysbios_knl_Task_Params_init)
                  0000f766    00000016     sensortag.obj (.text:ti_sysbios_knl_Task_Params_init)
                  0000f77c    00000016     sensortag_bar.obj (.text:ti_sysbios_knl_Task_Params_init)
                  0000f792    00000016     sensortag_hum.obj (.text:ti_sysbios_knl_Task_Params_init)
                  0000f7a8    00000016     sensortag_tmp.obj (.text:ti_sysbios_knl_Task_Params_init)
                  0000f7be    00000016     SPICC26XXDMA.obj (.text:uDMAChannelDisable)
                  0000f7d4    00000016     UDMACC26XX.obj (.text:uDMAChannelDisable)
                  0000f7ea    00000002     --HOLE-- [fill = 0]
                  0000f7ec    00000014     battservice.obj (.text:AONBatMonBatteryVoltageGet)
                  0000f800    00000014     battservice.obj (.text:Batt_Register)
                  0000f814    00000014     RFCC26XX_singleMode.obj (.text:FsmNextState)
                  0000f828    00000014     I2CCC26XX.obj (.text:I2CMasterDataGet)
                  0000f83c    00000014     I2CCC26XX.obj (.text:I2CMasterIntClear)
                  0000f850    00000014     I2CCC26XX.obj (.text:I2CMasterIntDisable)
                  0000f864    00000014     I2CCC26XX.obj (.text:I2CMasterIntEnable)
                  0000f878    00000014     I2C.obj (.text:I2C_Params_init)
                  0000f88c    00000014     icall_cc2650.obj (.text:ICallPlatform_pwrGetXOSCStartupTime)
                  0000f8a0    00000014     driverlib.lib : aon_rtc.obj (.text:NOROM_AONRTCCurrent64BitValueGet)
                  0000f8b4    00000014                   : chipinfo.obj (.text:NOROM_ThisCodeIsBuiltForCC26xxHwRev22AndLater_HaltIfViolated)
                  0000f8c8    00000014     PINCC26XX.obj (.text:PIN_ctz)
                  0000f8dc    00000014     ble_user_config.obj (.text:RegisterAssertCback)
                  0000f8f0    00000014     SensorI2C.obj (.text:SensorI2C_deselect)
                  0000f904    00000014     SensorMpu9250.obj (.text:SensorMpu9250_registerCallback)
                  0000f918    00000014     sensortag.obj (.text:SensorTag_stateChangeCB)
                  0000f92c    00000014     UDMACC26XX.obj (.text:UDMACC26XX_hwiIntFxn)
                  0000f940    00000014     util.obj (.text:Util_constructQueue)
                  0000f954    00000008     (.tramp.ti_sysbios_knl_Queue_construct.1)
                  0000f95c    00000014     util.obj (.text:Util_startClock)
                  0000f970    00000014     util.obj (.text:Util_stopClock)
                  0000f984    00000014     ExtFlash.obj (.text:extFlashDeselect)
                  0000f998    00000014     ExtFlash.obj (.text:extFlashSelect)
                  0000f9ac    00000014     rtsv7M3_T_le_eabi.lib : _lock.obj (.text)
                  0000f9c0    00000014                           : strlen.obj (.text)
                  0000f9d4    00000014     app_ble_pem3.oem3 (.text:ti_sysbios_knl_Clock_doTick__I)
                  0000f9e8    00000008     (.tramp.ti_sysbios_knl_Clock_logTick__E.1)
                  0000f9f0    00000014     SPICC26XXDMA.obj (.text:uDMAIntClear)
                  0000fa04    00000012     I2CCC26XX.obj (.text:I2CCC26XX_control)
                  0000fa16    00000012     I2C.obj (.text:I2C_close)
                  0000fa28    00000012     icall.obj (.text:ICall_primE2S)
                  0000fa3a    00000012     SPI.obj (.text:SPI_close)
                  0000fa4c    00000012     SPICC26XXDMA.obj (.text:SSIIntClear)
                  0000fa5e    00000012     sensortag.obj (.text:SensorTag_processGATTMsg)
                  0000fa70    00000012     sensortag_io.obj (.text:ioChangeCB)
                  0000fa82    00000012     sensortag_mov.obj (.text:sensorChangeCB)
                  0000fa94    00000012     sensortag_bar.obj (.text:sensorConfigChangeCB)
                  0000faa6    00000012     sensortag_batt.obj (.text:sensorConfigChangeCB)
                  0000fab8    00000012     sensortag_hum.obj (.text:sensorConfigChangeCB)
                  0000faca    00000012     sensortag_opt.obj (.text:sensorConfigChangeCB)
                  0000fadc    00000012     sensortag_tmp.obj (.text:sensorConfigChangeCB)
                  0000faee    00000012     UDMACC26XX.obj (.text:uDMAControlBaseSet)
                  0000fb00    00000012     app_ble_pem3.oem3 (.text:xdc_runtime_Startup_exec__I)
                  0000fb12    00000002     --HOLE-- [fill = 0]
                  0000fb14    00000008     (.tramp.xdc_runtime_Startup_startMods__I.1)
                  0000fb1c    00000010     ble_user_config.obj (.text:DefaultAssertCback)
                  0000fb2c    00000010     icall_api.obj (.text:GGS_AddService)
                  0000fb3c    00000010     icall_cc2650.obj (.text:ICallPlatform_pwrGetTransitionState)
                  0000fb4c    00000010     icall_cc2650.obj (.text:ICallPlatform_pwrIsStableXOSCHF)
                  0000fb5c    00000010     icall.obj (.text:ICall_primDisableInt)
                  0000fb6c    00000008     (.tramp.ti_sysbios_hal_Hwi_disableInterrupt__E.1)
                  0000fb74    00000010     icall.obj (.text:ICall_primDisableMInt)
                  0000fb84    00000010     icall.obj (.text:ICall_primEnableInt)
                  0000fb94    00000008     (.tramp.ti_sysbios_hal_Hwi_enableInterrupt__E.1)
                  0000fb9c    00000010     icall.obj (.text:ICall_primEnableMInt)
                  0000fbac    00000008     (.tramp.ti_sysbios_family_arm_m3_Hwi_enableFxn__E.1)
                  0000fbb4    00000008     (.tramp.ti_sysbios_knl_Task_enable__E.1)
                  0000fbbc    00000010     icall.obj (.text:ICall_primFree)
                  0000fbcc    00000010     icall.obj (.text:ICall_primGetTicks)
                  0000fbdc    00000010     icall.obj (.text:ICall_primSignal)
                  0000fbec    00000010     driverlib.lib : rfc.obj (.text:NOROM_RFCRfTrimSet)
                  0000fbfc    00000010                   : setup.obj (.text:NOROM_SetupGetTrimForXoscHfFastStart)
                  0000fc0c    00000010                   : setup.obj (.text:NOROM_SetupGetTrimForXoscHfIbiastherm)
                  0000fc1c    00000010     PINCC26XX.obj (.text:PIN_getOutputValue)
                  0000fc2c    00000010     RFCC26XX_singleMode.obj (.text:RFCClockEnable)
                  0000fc3c    00000010     RFCC26XX_singleMode.obj (.text:defaultErrCb)
                  0000fc4c    00000010     rom_sysbios.aem3 : rom_sysbios.obj (.text:ti_sysbios_family_arm_m3_Hwi_post__E)
                  0000fc5c    00000010     UDMACC26XX.obj (.text:uDMADisable)
                  0000fc6c    00000010     UDMACC26XX.obj (.text:uDMAEnable)
                  0000fc7c    00000010     UDMACC26XX.obj (.text:uDMAErrorStatusClear)
                  0000fc8c    00000010     SPICC26XXDMA.obj (.text:uDMAIntStatus)
                  0000fc9c    0000000e     icall_api.obj (.text:GATTServApp_AddService)
                  0000fcaa    0000000e     icall.obj (.text:ICall_mallocImpl)
                  0000fcb8    0000000e     driverlib.lib : setup.obj (.text:NOROM_SetupSignExtendVddrTrimValue)
                  0000fcc6    0000000e                   : vims.obj (.text:NOROM_VIMSModeGet)
                  0000fcd4    0000000e     SPICC26XXDMA.obj (.text:PIN_getUserArg)
                  0000fce2    0000000e     RFCC26XX_singleMode.obj (.text:Q_peek)
                  0000fcf0    0000000e     rtsv7M3_T_le_eabi.lib : copy_decompress_none.obj (.text:decompress:none)
                  0000fcfe    0000000e     rom_sysbios.aem3 : rom_sysbios.obj (.text:ti_sysbios_family_arm_cc26xx_TimestampProvider_get32__E)
                  0000fd0c    0000000c     icall_cc2650.obj (.text:ICallPlatform_pwrSwitchXOSCHF)
                  0000fd18    0000000c     icall.obj (.text:ICall_freeImpl)
                  0000fd24    0000000c     icall.obj (.text:ICall_primAbort)
                  0000fd30    0000000c     driverlib.lib : cpu.obj (.text:NOROM_CPUcpsid)
                  0000fd3c    0000000c                   : cpu.obj (.text:NOROM_CPUcpsie)
                  0000fd48    0000000c     drivers_cc26xxware.aem3 : PowerCC26XX.oem3 (.text:Power_getConstraintMask)
                  0000fd54    0000000c                             : PowerCC26XX.oem3 (.text:Power_getDependencyCount)
                  0000fd60    0000000c                             : PowerCC26XX.oem3 (.text:Power_getTransitionState)
                  0000fd6c    0000000c     RFCC26XX_singleMode.obj (.text:RFCClockDisable)
                  0000fd78    0000000c     SensorOpt3001.obj (.text:SensorOpt3001_init)
                  0000fd84    0000000c     sensortag.obj (.text:SensorTag_testResult)
                  0000fd90    0000000c     TRNGCC26XX.obj (.text:TRNGEnable)
                  0000fd9c    0000000c     TRNGCC26XX.obj (.text:TRNGStatusGet)
                  0000fda8    0000000c     RFCC26XX_singleMode.obj (.text:clkInactivityFxn)
                  0000fdb4    0000000c     peripheral.obj (.text:gapRole_clockHandler)
                  0000fdc0    0000000c     rom_sysbios.aem3 : rom_sysbios.obj (.text:ti_sysbios_BIOS_getThreadType__E)
                  0000fdcc    0000000c     RFCC26XX_singleMode.obj (.text:ti_sysbios_family_arm_m3_Hwi_handle)
                  0000fdd8    0000000c     rom_sysbios.aem3 : rom_sysbios_config.obj (.text:ti_sysbios_hal_Hwi_Params__init__S)
                  0000fde4    00000008     (.tramp.xdc_runtime_Core_assignParams__I.1)
                  0000fdec    0000000c     RFCC26XX_singleMode.obj (.text:ti_sysbios_knl_Clock_handle)
                  0000fdf8    0000000c     util.obj (.text:ti_sysbios_knl_Clock_handle)
                  0000fe04    0000000c     util.obj (.text:ti_sysbios_knl_Queue_handle)
                  0000fe10    0000000c     I2CCC26XX.obj (.text:ti_sysbios_knl_Semaphore_handle)
                  0000fe1c    0000000c     PINCC26XX.obj (.text:ti_sysbios_knl_Semaphore_handle)
                  0000fe28    0000000c     RFCC26XX_singleMode.obj (.text:ti_sysbios_knl_Semaphore_handle)
                  0000fe34    0000000c     SPICC26XXDMA.obj (.text:ti_sysbios_knl_Semaphore_handle)
                  0000fe40    0000000c     SensorI2C.obj (.text:ti_sysbios_knl_Semaphore_handle)
                  0000fe4c    0000000c     rom_sysbios.aem3 : rom_sysbios.obj (.text:ti_sysbios_knl_Swi_getTrigger__E)
                  0000fe58    0000000c     I2CCC26XX.obj (.text:ti_sysbios_knl_Swi_handle)
                  0000fe64    0000000c     PINCC26XX.obj (.text:ti_sysbios_knl_Swi_handle)
                  0000fe70    0000000c     RFCC26XX_singleMode.obj (.text:ti_sysbios_knl_Swi_handle)
                  0000fe7c    0000000c     SPICC26XXDMA.obj (.text:ti_sysbios_knl_Swi_handle)
                  0000fe88    0000000c     sensortag_bar.obj (.text:ti_sysbios_knl_Task_handle)
                  0000fe94    0000000c     sensortag_hum.obj (.text:ti_sysbios_knl_Task_handle)
                  0000fea0    0000000c     sensortag_tmp.obj (.text:ti_sysbios_knl_Task_handle)
                  0000feac    0000000c     app_ble_pem3.oem3 (.text:xdc_runtime_Startup_reset__I)
                  0000feb8    0000000c     rom_sysbios.aem3 : rom_sysbios.obj (.text:xdc_runtime_Startup_rtsDone__E)
                  0000fec4    0000000a     drivers_cc26xxware.aem3 : List.oem3 (.text:List_empty)
                  0000fece    0000000a     SPICC26XXDMA.obj (.text:SPICC26XXDMA_serviceISR)
                  0000fed8    0000000a     SensorTmp007.obj (.text:SensorTmp007_init)
                  0000fee2    00000006     driverlib.lib : cpu.obj (.text:NOROM_CPUdelay)
                  0000fee8    00000006     rtsv7M3_T_le_eabi.lib : copy_decompress_rle.obj (.text:decompress:rle24)
                  0000feee    00000006     rom_sysbios.aem3 : rom_sysbios.obj (.text:ti_sysbios_family_arm_m3_Hwi_setFunc__E)
                  0000fef4    00000004     tirtosport.aem3 : HwiP_tirtos.oem3 (.text:HwiP_disable)
                  0000fef8    00000004     drivers_cc26xxware.aem3 : List.oem3 (.text:List_next)
                  0000fefc    00000004                             : PowerCC26XX.oem3 (.text:nopResourceHandler)
                  0000ff00    00000004     rom_sysbios.aem3 : rom_sysbios.obj (.text:ti_sysbios_family_arm_cc26xx_Timer_getCount64__E)
                  0000ff04    00000004                      : rom_sysbios.obj (.text:ti_sysbios_knl_Clock_isActive__E)
                  0000ff08    00000004                      : rom_sysbios.obj (.text:ti_sysbios_knl_Clock_setPeriod__E)
                  0000ff0c    00000004                      : rom_sysbios.obj (.text:ti_sysbios_knl_Queue_insert__E)
                  0000ff10    00000008     (.tramp.ti_sysbios_knl_Queue_put__E.1)
                  0000ff18    00000008     (.tramp.xdc_runtime_System_exit__E.1)
                  0000ff20    00000008     (.tramp.ti_sysbios_BIOS_getCpuFreq__E.1)
                  0000ff28    00000008     (.tramp.ti_sysbios_knl_Semaphore_destruct.1)
                  0000ff30    00000008     (.tramp.ti_sysbios_knl_Swi_destruct.1)
                  0000ff38    00000008     (.tramp.ti_sysbios_family_arm_m3_Hwi_destruct.1)
                  0000ff40    00000008     (.tramp.ti_sysbios_knl_Clock_scheduleNextTick__E.1)
                  0000ff48    00000008     (.tramp.ti_sysbios_knl_Clock_walkQueueDynamic__E.1)
                  0000ff50    00000008     (.tramp.ti_sysbios_knl_Clock_TimerProxy_getCurrentTick__E.1)
                  0000ff58    00000008     (.tramp.ti_sysbios_knl_Task_create.1)
                  0000ff60    00000008     (.tramp.ti_sysbios_knl_Queue_enqueue__E.1)
                  0000ff68    00000008     (.tramp.ti_sysbios_knl_Queue_remove__E.1)
                  0000ff70    00000008     (.tramp.ti_sysbios_knl_Semaphore_create.1)
                  0000ff78    00000008     (.tramp.ti_sysbios_knl_Clock_create.1)
                  0000ff80    00000008     (.tramp.ti_sysbios_knl_Queue_empty__E.1)
                  0000ff88    00000008     (.tramp.ti_sysbios_knl_Task_sleep__E.1)
                  0000ff90    00000008     (.tramp.ti_sysbios_knl_Clock_Params__init__S.1)
                  0000ff98    00000008     (.tramp.ti_sysbios_family_arm_m3_Hwi_enableInterrupt__E.1)
                  0000ffa0    00000008     (.tramp.ti_sysbios_family_arm_m3_Hwi_disableInterrupt__E.1)
                  0000ffa8    00000008     (.tramp.ti_sysbios_knl_Clock_construct.1)
                  0000ffb0    00000008     (.tramp.ti_sysbios_knl_Semaphore_post__E.1)
                  0000ffb8    00000008     (.tramp.ti_sysbios_knl_Semaphore_pend__E.1)
                  0000ffc0    00000008     (.tramp.ti_sysbios_knl_Clock_getTicks__E.1)
                  0000ffc8    00000008     (.tramp.ti_sysbios_knl_Task_self__E.1)
                  0000ffd0    00000008     (.tramp.xdc_runtime_System_abortSpin__E.1)
                  0000ffd8    00000008     (.tramp.ti_sysbios_knl_Swi_post__E.1)
                  0000ffe0    00000008     (.tramp.ti_sysbios_knl_Task_restore__E.1)
                  0000ffe8    00000008     (.tramp.ti_sysbios_knl_Task_disable__E.1)
                  0000fff0    00000008     (.tramp.ti_sysbios_knl_Swi_construct.1)
                  0000fff8    00000008     (.tramp.ti_sysbios_family_arm_m3_Hwi_construct.1)
                  00010000    00000008     (.tramp.ti_sysbios_knl_Semaphore_construct.1)
                  00010008    00000008     (.tramp.ti_sysbios_knl_Swi_restore__E.1)
                  00010010    00000008     (.tramp.ti_sysbios_knl_Swi_disable__E.1)
                  00010018    00000008     (.tramp.ti_sysbios_knl_Clock_start__E.1)
                  00010020    00000008     (.tramp.ti_sysbios_knl_Clock_setTimeout__E.1)
                  00010028    00000008     (.tramp.ti_sysbios_family_arm_m3_Hwi_restoreFxn__E.1)
                  00010030    00000008     (.tramp.ti_sysbios_family_arm_m3_Hwi_disableFxn__E.1)

.const     0    00010038    000006a2     
                  00010038    000000b4     icall.obj (.const:ICall_primSvcFuncs)
                  000100ec    00000068     board.obj (.const:BoardGpioInitTable)
                  00010154    0000004c     drivers_cc26xxware.aem3 : PowerCC26XX.oem3 (.const:resourceDB)
                  000101a0    0000004c     ble_user_config.obj (.const:rfDriverTable)
                  000101ec    00000048     app_ble_pem3.oem3 (.const:.string)
                  00010234    00000038     board.obj (.const:spiCC26XXDMAHWAttrs)
                  0001026c    00000027     ble_user_config.obj (.const:txPowerTable)
                  00010293    00000001     ExtFlash.obj (.const:.string:$P$T1$2)
                  00010294    00000024     board.obj (.const:SPI_config)
                  000102b8    00000024     app_ble_pem3.oem3 (.const:xdc_runtime_Startup_sfxnTab__A)
                  000102dc    00000020     SPI.obj (.const:SPI_defaultParams)
                  000102fc    0000001c     SPICC26XXDMA.obj (.const:SPICC26XXDMA_fxnTable)
                  00010318    00000018     I2CCC26XX.obj (.const:I2CCC26XX_fxnTable)
                  00010330    00000018     board.obj (.const:I2C_config)
                  00010348    00000018     SPICC26XXDMA.obj (.const:frameFormat)
                  00010360    00000018     board.obj (.const:i2cCC26xxHWAttrs)
                  00010378    00000014     RFCC26XX_singleMode.obj (.const:RF_defaultParams)
                  0001038c    00000013     sensortag.obj (.const:.string:devInfoFirmwareRev)
                  0001039f    00000012     sensortag.obj (.const:.string:devInfoMfrName)
                  000103b1    00000001     app_ble_pem3.oem3 (.const:xdc_runtime_Text_charTab__A)
                  000103b2    00000012     app_ble_pem3.oem3 (.const:xdc_runtime_Startup_sfxnRts__A)
                  000103c4    00000011     sensortag.obj (.const:.string:devInfoModelNumber)
                  000103d5    00000010     ioservice.obj (.const:.string:ioConfUUID)
                  000103e5    00000010     ioservice.obj (.const:.string:ioDataUUID)
                  000103f5    00000010     ioservice.obj (.const:.string:ioServUUID)
                  00010405    00000010     barometerservice.obj (.const:.string:sensorCfgUUID)
                  00010415    00000010     humidityservice.obj (.const:.string:sensorCfgUUID)
                  00010425    00000010     irtempservice.obj (.const:.string:sensorCfgUUID)
                  00010435    00000010     movementservice.obj (.const:.string:sensorCfgUUID)
                  00010445    00000010     opticservice.obj (.const:.string:sensorCfgUUID)
                  00010455    00000010     barometerservice.obj (.const:.string:sensorDataUUID)
                  00010465    00000010     humidityservice.obj (.const:.string:sensorDataUUID)
                  00010475    00000010     irtempservice.obj (.const:.string:sensorDataUUID)
                  00010485    00000010     movementservice.obj (.const:.string:sensorDataUUID)
                  00010495    00000010     opticservice.obj (.const:.string:sensorDataUUID)
                  000104a5    00000010     barometerservice.obj (.const:.string:sensorPeriodUUID)
                  000104b5    00000010     humidityservice.obj (.const:.string:sensorPeriodUUID)
                  000104c5    00000010     irtempservice.obj (.const:.string:sensorPeriodUUID)
                  000104d5    00000010     movementservice.obj (.const:.string:sensorPeriodUUID)
                  000104e5    00000010     opticservice.obj (.const:.string:sensorPeriodUUID)
                  000104f5    00000010     barometerservice.obj (.const:.string:sensorServiceUUID)
                  00010505    00000010     humidityservice.obj (.const:.string:sensorServiceUUID)
                  00010515    00000010     irtempservice.obj (.const:.string:sensorServiceUUID)
                  00010525    00000010     movementservice.obj (.const:.string:sensorServiceUUID)
                  00010535    00000010     opticservice.obj (.const:.string:sensorServiceUUID)
                  00010545    00000002     battservice.obj (.const:.string:battLevelUUID)
                  00010547    00000001     --HOLE-- [fill = 0]
                  00010548    00000010     I2C.obj (.const:I2C_defaultParams)
                  00010558    00000010     board.obj (.const:PowerCC26XX_config)
                  00010568    00000010     board.obj (.const:TRNGCC26XX_config)
                  00010578    00000010     board.obj (.const:UDMACC26XX_config)
                  00010588    0000000c     icall.obj (.const:ICall_taskEntryFuncs)
                  00010594    0000000c     battservice.obj (.const:battCBs)
                  000105a0    0000000c     devinfoservice.obj (.const:devInfoCBs)
                  000105ac    0000000c     ioservice.obj (.const:ioCBs)
                  000105b8    0000000c     barometerservice.obj (.const:sensorCBs)
                  000105c4    0000000c     humidityservice.obj (.const:sensorCBs)
                  000105d0    0000000c     irtempservice.obj (.const:sensorCBs)
                  000105dc    0000000c     movementservice.obj (.const:sensorCBs)
                  000105e8    0000000c     opticservice.obj (.const:sensorCBs)
                  000105f4    0000000c     ble_user_config.obj (.const:trngDriverTable)
                  00010600    0000000c     app_ble_pem3.oem3 (.const:xdc_runtime_Startup_firstFxns__A)
                  0001060c    00000008     board.obj (.const:PINCC26XX_hwAttrs)
                  00010614    00000008     battservice.obj (.const:battService)
                  0001061c    00000008     I2CCC26XX.obj (.const:bitRate)
                  00010624    00000008     devinfoservice.obj (.const:devInfoService)
                  0001062c    00000008     SPICC26XXDMA.obj (.const:dmaNullConfig)
                  00010634    00000008     SPICC26XXDMA.obj (.const:dmaRxConfig)
                  0001063c    00000008     SPICC26XXDMA.obj (.const:dmaTxConfig)
                  00010644    00000008     ioservice.obj (.const:ioService)
                  0001064c    00000008     SPICC26XXDMA.obj (.const:mode)
                  00010654    00000008     barometerservice.obj (.const:sensorService)
                  0001065c    00000008     humidityservice.obj (.const:sensorService)
                  00010664    00000008     irtempservice.obj (.const:sensorService)
                  0001066c    00000008     movementservice.obj (.const:sensorService)
                  00010674    00000008     opticservice.obj (.const:sensorService)
                  0001067c    00000008     board.obj (.const:udmaHWAttrs)
                  00010684    00000006     ble_user_config.obj (.const:txPwrTbl)
                  0001068a    00000005     sensortag.obj (.const:.string:devInfoNA)
                  0001068f    00000004     ExtFlash.obj (.const:.string:$P$T0$1)
                  00010693    00000001     --HOLE-- [fill = 0]
                  00010694    00000004     icall.obj (.const:ICall_threadPriorities)
                  00010698    00000004     icall.obj (.const:ICall_threadStackSizes)
                  0001069c    00000004     board.obj (.const:RFCC26XX_hwAttrs)
                  000106a0    00000004     board.obj (.const:TRNGCC26XXHWAttrs)
                  000106a4    00000004     icall_cc2650.obj (.const:events$1)
                  000106a8    00000004     icall.obj (.const:icall_threadEntries)
                  000106ac    00000004     app_ble_pem3.oem3 (.const:ti_sysbios_knl_Clock_tickPeriod__C)
                  000106b0    00000004     app_ble_pem3.oem3 (.const:ti_sysbios_knl_Clock_triggerClock__C)
                  000106b4    00000004     app_ble_pem3.oem3 (.const:ti_sysbios_knl_Idle_funcList__A)
                  000106b8    00000002     battservice.obj (.const:.string:battServUUID)
                  000106ba    00000002     gatt_uuid.obj (.const:.string:charFormatUUID)
                  000106bc    00000002     gatt_uuid.obj (.const:.string:characterUUID)
                  000106be    00000002     gatt_uuid.obj (.const:.string:clientCharCfgUUID)
                  000106c0    00000002     devinfoservice.obj (.const:.string:devInfo11073CertUUID)
                  000106c2    00000002     devinfoservice.obj (.const:.string:devInfoFirmwareRevUUID)
                  000106c4    00000002     devinfoservice.obj (.const:.string:devInfoHardwareRevUUID)
                  000106c6    00000002     devinfoservice.obj (.const:.string:devInfoMfrNameUUID)
                  000106c8    00000002     devinfoservice.obj (.const:.string:devInfoModelNumberUUID)
                  000106ca    00000002     devinfoservice.obj (.const:.string:devInfoPnpIdUUID)
                  000106cc    00000002     devinfoservice.obj (.const:.string:devInfoSerialNumberUUID)
                  000106ce    00000002     devinfoservice.obj (.const:.string:devInfoServUUID)
                  000106d0    00000002     devinfoservice.obj (.const:.string:devInfoSoftwareRevUUID)
                  000106d2    00000002     devinfoservice.obj (.const:.string:devInfoSystemIdUUID)
                  000106d4    00000002     gatt_uuid.obj (.const:.string:primaryServiceUUID)
                  000106d6    00000002     gatt_uuid.obj (.const:.string:reportRefUUID)
                  000106d8    00000002     SensorI2C.obj (.const:pinCfg1)

MODULE SUMMARY

       Module                            code    ro data   rw data
       ------                            ----    -------   -------
    ./Application/
       sensortag.obj                     2026    59        949    
       sensortag_bar.obj                 732     0         696    
       sensortag_tmp.obj                 676     0         696    
       sensortag_hum.obj                 664     0         696    
       sensortag_mov.obj                 1102    0         76     
       util.obj                          608     0         0      
       sensortag_opt.obj                 550     0         45     
       sensortag_buzzer.obj              508     0         4      
       sensortag_io.obj                  482     0         6      
       sensortag_batt.obj                206     0         37     
    +--+---------------------------------+-------+---------+---------+
       Total:                            7554    59        3205   
                                                                  
    ./Drivers/I2C/
       I2CCC26XX.obj                     2506    32        0      
       I2C.obj                           220     16        4      
    +--+---------------------------------+-------+---------+---------+
       Total:                            2726    48        4      
                                                                  
    ./Drivers/PIN/
       PINCC26XX.obj                     2398    0         272    
    +--+---------------------------------+-------+---------+---------+
       Total:                            2398    0         272    
                                                                  
    ./Drivers/RF/
       RFCC26XX_singleMode.obj           6918    20        568    
    +--+---------------------------------+-------+---------+---------+
       Total:                            6918    20        568    
                                                                  
    ./Drivers/SPI/
       SPICC26XXDMA.obj                  3420    84        64     
       SPI.obj                           136     32        4      
    +--+---------------------------------+-------+---------+---------+
       Total:                            3556    116       68     
                                                                  
    ./Drivers/TRNG/
       TRNGCC26XX.obj                    396     0         1      
    +--+---------------------------------+-------+---------+---------+
       Total:                            396     0         1      
                                                                  
    ./Drivers/UDMA/
       UDMACC26XX.obj                    394     0         0      
    +--+---------------------------------+-------+---------+---------+
       Total:                            394     0         0      
                                                                  
    ./ICall/
       icall.obj                         4370    204       268    
       icall_cc2650.obj                  734     4         8      
    +--+---------------------------------+-------+---------+---------+
       Total:                            5104    208       276    
                                                                  
    ./ICallBLE/
       icall_api.obj                     3846    0         12     
       ble_user_config.obj               64      133       84     
    +--+---------------------------------+-------+---------+---------+
       Total:                            3910    133       96     
                                                                  
    ./Middleware/extflash/
       ExtFlash.obj                      900     5         108    
    +--+---------------------------------+-------+---------+---------+
       Total:                            900     5         108    
                                                                  
    ./Middleware/sensors/
       SensorMpu9250.obj                 2438    0         53     
       SensorBmp280.obj                  832     0         24     
       SensorI2C.obj                     698     2         82     
       SensorTmp007.obj                  570     0         6      
       SensorOpt3001.obj                 406     0         0      
       SensorHdc1000.obj                 368     0         5      
       SensorUtil.obj                    88      0         0      
    +--+---------------------------------+-------+---------+---------+
       Total:                            5400    2         170    
                                                                  
    ./Middleware/sensortag/
       SensorTagTest.obj                 192     0         1      
    +--+---------------------------------+-------+---------+---------+
       Total:                            192     0         1      
                                                                  
    ./PROFILES/
       peripheral.obj                    4758    0         801    
       devinfoservice.obj                1048    40        473    
       movementservice.obj               924     84        162    
       irtempservice.obj                 924     84        145    
       barometerservice.obj              920     84        147    
       humidityservice.obj               908     84        145    
       opticservice.obj                  908     84        143    
       battservice.obj                   920     24        132    
       ioservice.obj                     796     68        92     
       gattservapp_util.obj              924     0         0      
       st_util.obj                       112     0         0      
       gatt_uuid.obj                     0       10        0      
    +--+---------------------------------+-------+---------+---------+
       Total:                            13142   562       2240   
                                                                  
    ./Startup/
       board.obj                         0       316       700    
       main.obj                          98      0         48     
       ccfg_app_ble.obj                  0       88        0      
    +--+---------------------------------+-------+---------+---------+
       Total:                            98      404       748    
                                                                  
    /home/data/remi/Projects/perso/indoor_reporting/sensortag_firmware/ccs/app/FlashROM/configPkg/package/cfg/
       app_ble_pem3.oem3                 416     1459      3366   
    +--+---------------------------------+-------+---------+---------+
       Total:                            416     1459      3366   
                                                                  
    /home/data/remi/.wine_installs/win64/drive_c/ti/tirtos_cc13xx_cc26xx_2_20_01_08/products/bios_6_46_01_38/packages/ti/targets/arm/rtsarm/lib/auto_init.aem3
       auto_init.oem3                    160     0         0      
    +--+---------------------------------+-------+---------+---------+
       Total:                            160     0         0      
                                                                  
    /home/data/remi/.wine_installs/win64/drive_c/ti/tirtos_cc13xx_cc26xx_2_20_01_08/products/bios_6_46_01_38/packages/ti/targets/arm/rtsarm/lib/boot.aem3
       boot.oem3                         68      0         0      
    +--+---------------------------------+-------+---------+---------+
       Total:                            68      0         0      
                                                                  
    /home/data/remi/.wine_installs/win64/drive_c/ti/tirtos_cc13xx_cc26xx_2_20_01_08/products/tidrivers_cc13xx_cc26xx_2_20_01_10/packages/ti/drivers/lib/drivers_cc26xxware.aem3
       PowerCC26XX.oem3                  2168    76        272    
       PowerCC26XX_calibrateRCOSC.oem3   1400    0         0      
       List.oem3                         82      0         0      
    +--+---------------------------------+-------+---------+---------+
       Total:                            3650    76        272    
                                                                  
    /home/data/remi/.wine_installs/win64/drive_c/ti/tirtos_cc13xx_cc26xx_2_20_01_08/products/tidrivers_cc13xx_cc26xx_2_20_01_10/packages/ti/drivers/lib/power_cc26xx_tirtos.aem3
       PowerCC26XX_tirtos.oem3           188     0         0      
    +--+---------------------------------+-------+---------+---------+
       Total:                            188     0         0      
                                                                  
    /home/data/remi/.wine_installs/win64/drive_c/ti/tirtos_cc13xx_cc26xx_2_20_01_08/products/tidrivers_cc13xx_cc26xx_2_20_01_10/packages/ti/drivers/ports/lib/tirtosport.aem3
       HwiP_tirtos.oem3                  4       0         0      
    +--+---------------------------------+-------+---------+---------+
       Total:                            4       0         0      
                                                                  
    /home/data/remi/Projects/perso/indoor_reporting/sensortag_firmware/ccs/config/src/sysbios/rom_sysbios.aem3
       rom_sysbios.obj                   878     0         0      
       rom_sysbios_config.obj            12      0         0      
    +--+---------------------------------+-------+---------+---------+
       Total:                            890     0         0      
                                                                  
    /home/data/remi/dev_tools/Embedded/TI/ccsv6_install/ccsv6/tools/compiler/arm_15.12.3.LTS/lib/rtsv7M3_T_le_eabi.lib
       ull_div_t2.obj                    500     0         0      
       fd_mul_t2.obj                     252     0         0      
       fs_add_t2.obj                     250     0         0      
       memcpy_t2.obj                     156     0         0      
       fd_cmp_t2.obj                     134     0         0      
       memset_t2.obj                     122     0         0      
       copy_decompress_rle.obj           112     0         0      
       fd_tos_t2.obj                     110     0         0      
       exit.obj                          84      0         12     
       cpy_tbl.obj                       76      0         0      
       fs_tod_t2.obj                     56      0         0      
       memcmp.obj                        34      0         0      
       u_tofd_t2.obj                     32      0         0      
       _lock.obj                         20      0         8      
       args_main.obj                     24      0         0      
       ll_mul_t2.obj                     24      0         0      
       strlen.obj                        20      0         0      
       copy_decompress_none.obj          14      0         0      
       stkdepth_vars.obj                 0       0         4      
    +--+---------------------------------+-------+---------+---------+
       Total:                            2020    0         24     
                                                                  
    /home/remi/.wine_installs/win64/drive_c/ti/tirtos_cc13xx_cc26xx_2_20_01_08/products/cc26xxware_2_24_02_17393/driverlib/bin/ccs/driverlib.lib
       setup.obj                         1682    0         0      
       sys_ctrl.obj                      712     0         8      
       osc.obj                           472     0         20     
       chipinfo.obj                      228     0         0      
       ddi.obj                           180     0         0      
       rfc.obj                           168     0         0      
       trng.obj                          52      0         0      
       aon_rtc.obj                       44      0         0      
       adi.obj                           40      0         0      
       aon_batmon.obj                    40      0         0      
       cpu.obj                           30      0         0      
       vims.obj                          14      0         0      
       driverlib_release.obj             0       0         1      
    +--+---------------------------------+-------+---------+---------+
       Total:                            3662    0         29     
                                                                  
       Stack:                            0       0         1024   
       Linker Generated:                 488     2540      0      
    +--+---------------------------------+-------+---------+---------+
       Grand Total:                      64234   5632      12472  


LINKER GENERATED COPY TABLES

__TI_cinit_table @ 0001f9c4 records: 16, size/record: 8, table size: 128
	.data: load addr=0001f000, load size=00000859 bytes, run addr=20000520, run size=00000ab0 bytes, compression=rle
	.data:ti_sysbios_family_arm_m3_Hwi_Module__state__V: load addr=0001f860, load size=0000002d bytes, run addr=20000144, run size=00000034 bytes, compression=rle
	.data:ti_sysbios_knl_Task_Module__state__V: load addr=0001f890, load size=0000002c bytes, run addr=20000100, run size=00000044 bytes, compression=rle
	.data:ti_sysbios_knl_Clock_Module__state__V: load addr=0001f8c0, load size=00000021 bytes, run addr=20000178, run size=0000002c bytes, compression=rle
	.data:ti_sysbios_BIOS_Module__state__V: load addr=0001f8e8, load size=0000001f bytes, run addr=200001a4, run size=00000024 bytes, compression=rle
	.data:ti_sysbios_knl_Swi_Module__state__V: load addr=0001f908, load size=00000011 bytes, run addr=200001c8, run size=0000001c bytes, compression=rle
	.data:ti_sysbios_family_arm_cc26xx_Timer_Module__state__V: load addr=0001f920, load size=0000000d bytes, run addr=200001e4, run size=00000008 bytes, compression=rle
	.bss: load addr=0001f930, load size=0000000b bytes, run addr=20000fd0, run size=0000200e bytes, compression=rle
	.data:xdc_runtime_Memory_Module__state__V: load addr=0001f940, load size=0000000a bytes, run addr=20000200, run size=00000004 bytes, compression=rle
	.TI.bound:dmaSpi0RxControlTableEntry: load addr=0001f950, load size=00000009 bytes, run addr=20000430, run size=00000010 bytes, compression=rle
	.TI.bound:dmaSpi0TxControlTableEntry: load addr=0001f960, load size=00000009 bytes, run addr=20000440, run size=00000010 bytes, compression=rle
	.TI.bound:dmaSpi1RxControlTableEntry: load addr=0001f970, load size=00000009 bytes, run addr=20000500, run size=00000010 bytes, compression=rle
	.TI.bound:dmaSpi1TxControlTableEntry: load addr=0001f980, load size=00000009 bytes, run addr=20000510, run size=00000010 bytes, compression=rle
	.data:ti_sysbios_family_arm_cc26xx_TimestampProvider_Module__state__V: load addr=0001f990, load size=00000009 bytes, run addr=200001ec, run size=00000004 bytes, compression=rle
	.data:xdc_runtime_Startup_Module__state__V: load addr=0001f9a0, load size=00000009 bytes, run addr=200001f0, run size=00000008 bytes, compression=rle
	.data:xdc_runtime_System_Module__state__V: load addr=0001f9b0, load size=00000009 bytes, run addr=200001f8, run size=00000008 bytes, compression=rle


LINKER GENERATED HANDLER TABLE

__TI_handler_table @ 0001f9bc records: 2, size/record: 4, table size: 8
	index: 0, handler: __TI_decompress_rle24
	index: 1, handler: __TI_decompress_none


FAR CALL TRAMPOLINES

callee name               trampoline name
   callee addr  tramp addr   call addr  call info
--------------  -----------  ---------  ----------------
ti_sysbios_BIOS_start__E  $Tramp$TT$L$PI$$ti_sysbios_BIOS_start__E
   1001c055     0000d15c     0000d14a   main.obj (.text:main)
ti_sysbios_knl_Task_construct  $Tramp$TT$L$PI$$ti_sysbios_knl_Task_construct
   1001b125     0000d210     0000d1fa   peripheral.obj (.text:GAPRole_createTask)
                             0000d2aa   sensortag_bar.obj (.text:SensorTagBar_createTask)
                             0000d31a   sensortag_hum.obj (.text:SensorTagHum_createTask)
                             0000d352   sensortag_tmp.obj (.text:SensorTagTmp_createTask)
                             0000d38a   sensortag.obj (.text:SensorTag_createTask)
ti_sysbios_hal_Hwi_create  $Tramp$TT$L$PI$$ti_sysbios_hal_Hwi_create
   1001ab79     0000d55c     0000d546   icall.obj (.text:ICall_primRegisterISR_Ext)
                             0000d622   icall.obj (.text:ICall_primRegisterISR)
ti_sysbios_BIOS_setThreadType__E  $Tramp$TT$L$PI$$ti_sysbios_BIOS_setThreadType__E
   1001c045     0000db9c     0000db78   app_ble_pem3.oem3 (.text:ti_sysbios_BIOS_atExitFunc__I)
                             0000f57c   app_ble_pem3.oem3 (.text:ti_sysbios_BIOS_exitFunc__I)
xdc_runtime_System_atexit__E  $Tramp$TT$L$PI$$xdc_runtime_System_atexit__E
   1001c681     0000dbd4     0000dbb4   app_ble_pem3.oem3 (.text:ti_sysbios_BIOS_startFunc__I)
ti_sysbios_family_arm_cc26xx_Timer_startup__E  $Tramp$TT$L$PI$$ti_sysbios_family_arm_cc26xx_Timer_startup__E
   1001b795     0000dbdc     0000dbbc   app_ble_pem3.oem3 (.text:ti_sysbios_BIOS_startFunc__I)
ti_sysbios_hal_Hwi_startup__E  $Tramp$TT$L$PI$$ti_sysbios_hal_Hwi_startup__E
   1001c28d     0000dbe4     0000dbc0   app_ble_pem3.oem3 (.text:ti_sysbios_BIOS_startFunc__I)
ti_sysbios_knl_Swi_startup__E  $Tramp$TT$L$PI$$ti_sysbios_knl_Swi_startup__E
   1001c23d     0000dbec     0000dbc4   app_ble_pem3.oem3 (.text:ti_sysbios_BIOS_startFunc__I)
ti_sysbios_knl_Task_startup__E  $Tramp$TT$L$PI$$ti_sysbios_knl_Task_startup__E
   1001c309     0000dbf4     0000dbc8   app_ble_pem3.oem3 (.text:ti_sysbios_BIOS_startFunc__I)
ti_sysbios_knl_Queue_get__E  $Tramp$TT$L$PI$$ti_sysbios_knl_Queue_get__E
   1001bf11     0000e494     0000e472   util.obj (.text:Util_dequeueMsg)
ti_sysbios_BIOS_RtsGateProxy_enter__E  $Tramp$TT$L$PI$$ti_sysbios_BIOS_RtsGateProxy_enter__E
   1001c249     0000ebfc     0000ebe2   app_ble_pem3.oem3 (.text:ti_sysbios_BIOS_rtsLock__I)
ti_sysbios_BIOS_RtsGateProxy_leave__E  $Tramp$TT$L$PI$$ti_sysbios_BIOS_RtsGateProxy_leave__E
   1001c24d     0000f474     0000f46a   app_ble_pem3.oem3 (.text:ti_sysbios_BIOS_rtsUnlock__I)
ti_sysbios_family_arm_m3_Hwi_Params__init__S  $Tramp$TT$L$PI$$ti_sysbios_family_arm_m3_Hwi_Params__init__S
   1001c13d     0000f5a0     0000f598   I2CCC26XX.obj (.text:ti_sysbios_family_arm_m3_Hwi_Params_init)
                             0000f5b8   PINCC26XX.obj (.text:ti_sysbios_family_arm_m3_Hwi_Params_init)
                             0000f5ce   RFCC26XX_singleMode.obj (.text:ti_sysbios_family_arm_m3_Hwi_Params_init)
                             0000f5e4   SPICC26XXDMA.obj (.text:ti_sysbios_family_arm_m3_Hwi_Params_init)
                             0000f5fa   UDMACC26XX.obj (.text:ti_sysbios_family_arm_m3_Hwi_Params_init)
ti_sysbios_knl_Semaphore_Params__init__S  $Tramp$TT$L$PI$$ti_sysbios_knl_Semaphore_Params__init__S
   1001c1c1     0000f670     0000f668   I2CCC26XX.obj (.text:ti_sysbios_knl_Semaphore_Params_init)
                             0000f688   PINCC26XX.obj (.text:ti_sysbios_knl_Semaphore_Params_init)
                             0000f69e   RFCC26XX_singleMode.obj (.text:ti_sysbios_knl_Semaphore_Params_init)
                             0000f6b4   SPICC26XXDMA.obj (.text:ti_sysbios_knl_Semaphore_Params_init)
                             0000f6ca   SensorI2C.obj (.text:ti_sysbios_knl_Semaphore_Params_init)
ti_sysbios_knl_Swi_Params__init__S  $Tramp$TT$L$PI$$ti_sysbios_knl_Swi_Params__init__S
   1001c1cd     0000f6e8     0000f6e0   I2CCC26XX.obj (.text:ti_sysbios_knl_Swi_Params_init)
                             0000f700   PINCC26XX.obj (.text:ti_sysbios_knl_Swi_Params_init)
                             0000f716   RFCC26XX_singleMode.obj (.text:ti_sysbios_knl_Swi_Params_init)
                             0000f72c   SPICC26XXDMA.obj (.text:ti_sysbios_knl_Swi_Params_init)
ti_sysbios_knl_Task_Params__init__S  $Tramp$TT$L$PI$$ti_sysbios_knl_Task_Params__init__S
   1001c1d9     0000f748     0000f742   icall.obj (.text:ti_sysbios_knl_Task_Params_init)
                             0000f760   peripheral.obj (.text:ti_sysbios_knl_Task_Params_init)
                             0000f776   sensortag.obj (.text:ti_sysbios_knl_Task_Params_init)
                             0000f78c   sensortag_bar.obj (.text:ti_sysbios_knl_Task_Params_init)
                             0000f7a2   sensortag_hum.obj (.text:ti_sysbios_knl_Task_Params_init)
                             0000f7b8   sensortag_tmp.obj (.text:ti_sysbios_knl_Task_Params_init)
ti_sysbios_knl_Queue_construct  $Tramp$TT$L$PI$$ti_sysbios_knl_Queue_construct
   1001b8f5     0000f954     0000f948   util.obj (.text:Util_constructQueue)
ti_sysbios_knl_Clock_logTick__E  $Tramp$TT$L$PI$$ti_sysbios_knl_Clock_logTick__E
   1001be67     0000f9e8     0000f9d6   app_ble_pem3.oem3 (.text:ti_sysbios_knl_Clock_doTick__I)
xdc_runtime_Startup_startMods__I  $Tramp$TT$L$PI$$xdc_runtime_Startup_startMods__I
   1001c30d     0000fb14     0000fb0a   app_ble_pem3.oem3 (.text:xdc_runtime_Startup_exec__I)
ti_sysbios_hal_Hwi_disableInterrupt__E  $Tramp$TT$L$PI$$ti_sysbios_hal_Hwi_disableInterrupt__E
   1001c281     0000fb6c     0000fb64   icall.obj (.text:ICall_primDisableInt)
ti_sysbios_hal_Hwi_enableInterrupt__E  $Tramp$TT$L$PI$$ti_sysbios_hal_Hwi_enableInterrupt__E
   1001c285     0000fb94     0000fb8c   icall.obj (.text:ICall_primEnableInt)
ti_sysbios_family_arm_m3_Hwi_enableFxn__E  $Tramp$TT$L$PI$$ti_sysbios_family_arm_m3_Hwi_enableFxn__E
   1001c155     0000fbac     0000fba0   icall.obj (.text:ICall_primEnableMInt)
ti_sysbios_knl_Task_enable__E  $Tramp$TT$L$PI$$ti_sysbios_knl_Task_enable__E
   1001c243     0000fbb4     0000fba4   icall.obj (.text:ICall_primEnableMInt)
xdc_runtime_Core_assignParams__I  $Tramp$TT$L$PI$$xdc_runtime_Core_assignParams__I
   1001c5f1     0000fde4     0000fddc   rom_sysbios.aem3 : rom_sysbios_config.obj (.text:ti_sysbios_hal_Hwi_Params__init__S)
ti_sysbios_knl_Queue_put__E  $Tramp$TT$L$PI$$ti_sysbios_knl_Queue_put__E
   1001bf2d     0000ff10     0000cb9a   util.obj (.text:Util_enqueueMsg)
xdc_runtime_System_exit__E  $Tramp$TT$L$PI$$xdc_runtime_System_exit__E
   1001c7d1     0000ff18     0000c8a0   boot.aem3 : boot.oem3 (.text)
                             0000f582   app_ble_pem3.oem3 (.text:ti_sysbios_BIOS_exitFunc__I)
ti_sysbios_BIOS_getCpuFreq__E  $Tramp$TT$L$PI$$ti_sysbios_BIOS_getCpuFreq__E
   1001bff9     0000ff20     0000925e   SPICC26XXDMA.obj (.text:SPICC26XXDMA_initHw)
                             0000ac46   I2CCC26XX.obj (.text:I2CCC26XX_initHw)
ti_sysbios_knl_Semaphore_destruct  $Tramp$TT$L$PI$$ti_sysbios_knl_Semaphore_destruct
   1001c2e1     0000ff28     00008e9a   I2CCC26XX.obj (.text:I2CCC26XX_close)
                             00008ea8   I2CCC26XX.obj (.text:I2CCC26XX_close)
                             000092f6   SPICC26XXDMA.obj (.text:SPICC26XXDMA_close)
ti_sysbios_knl_Swi_destruct  $Tramp$TT$L$PI$$ti_sysbios_knl_Swi_destruct
   1001c2e9     0000ff30     00008e92   I2CCC26XX.obj (.text:I2CCC26XX_close)
                             000092e0   SPICC26XXDMA.obj (.text:SPICC26XXDMA_close)
ti_sysbios_family_arm_m3_Hwi_destruct  $Tramp$TT$L$PI$$ti_sysbios_family_arm_m3_Hwi_destruct
   1001c261     0000ff38     00008e8a   I2CCC26XX.obj (.text:I2CCC26XX_close)
                             000092d8   SPICC26XXDMA.obj (.text:SPICC26XXDMA_close)
                             0000b56c   UDMACC26XX.obj (.text:UDMACC26XX_close)
ti_sysbios_knl_Clock_scheduleNextTick__E  $Tramp$TT$L$PI$$ti_sysbios_knl_Clock_scheduleNextTick__E
   1001bebd     0000ff40     0000845a   rom_sysbios.aem3 : rom_sysbios.obj (.text:ti_sysbios_knl_Clock_workFuncDynamic__E)
ti_sysbios_knl_Clock_walkQueueDynamic__E  $Tramp$TT$L$PI$$ti_sysbios_knl_Clock_walkQueueDynamic__E
   1001a80d     0000ff48     00008422   rom_sysbios.aem3 : rom_sysbios.obj (.text:ti_sysbios_knl_Clock_workFuncDynamic__E)
                             0000843e                    : rom_sysbios.obj (.text:ti_sysbios_knl_Clock_workFuncDynamic__E)
ti_sysbios_knl_Clock_TimerProxy_getCurrentTick__E  $Tramp$TT$L$PI$$ti_sysbios_knl_Clock_TimerProxy_getCurrentTick__E
   1001c095     0000ff50     000083f0   rom_sysbios.aem3 : rom_sysbios.obj (.text:ti_sysbios_knl_Clock_workFuncDynamic__E)
                             0000e176                    : rom_sysbios.obj (.text:ti_sysbios_knl_Clock_getTicksUntilInterrupt__E)
ti_sysbios_knl_Task_create  $Tramp$TT$L$PI$$ti_sysbios_knl_Task_create
   1001ae19     0000ff58     00007eb6   icall.obj (.text:ICall_createRemoteTasks)
                             0000b31e   icall.obj (.text:ICall_primCreateTask)
ti_sysbios_knl_Queue_enqueue__E  $Tramp$TT$L$PI$$ti_sysbios_knl_Queue_enqueue__E
   1001c1b5     0000ff60     00007e2c   rom_sysbios.aem3 : rom_sysbios.obj (.text:ti_sysbios_knl_Task_setPri__E)
                             0000ff0c                    : rom_sysbios.obj (.text:ti_sysbios_knl_Queue_insert__E)
ti_sysbios_knl_Queue_remove__E  $Tramp$TT$L$PI$$ti_sysbios_knl_Queue_remove__E
   1001c121     0000ff68     00007e0e   rom_sysbios.aem3 : rom_sysbios.obj (.text:ti_sysbios_knl_Task_setPri__E)
ti_sysbios_knl_Semaphore_create  $Tramp$TT$L$PI$$ti_sysbios_knl_Semaphore_create
   1001b5ad     0000ff70     0000799e   icall.obj (.text:ICall_newTask)
ti_sysbios_knl_Clock_create  $Tramp$TT$L$PI$$ti_sysbios_knl_Clock_create
   1001b3ed     0000ff78     00006ac4   icall.obj (.text:ICall_primSetTimer)
ti_sysbios_knl_Queue_empty__E  $Tramp$TT$L$PI$$ti_sysbios_knl_Queue_empty__E
   1001c113     0000ff80     00006560   sensortag.obj (.text:SensorTag_taskFxn)
                             00007e14   rom_sysbios.aem3 : rom_sysbios.obj (.text:ti_sysbios_knl_Task_setPri__E)
ti_sysbios_knl_Task_sleep__E  $Tramp$TT$L$PI$$ti_sysbios_knl_Task_sleep__E
   1001a96d     0000ff88     00005ad0   sensortag_bar.obj (.text:sensorTaskFxn)
                             00005b50   sensortag_bar.obj (.text:sensorTaskFxn)
                             00005b60   sensortag_bar.obj (.text:sensorTaskFxn)
                             00005f7a   sensortag_mov.obj (.text:SensorTagMov_processCharChangeEvt)
                             000065f4   sensortag_tmp.obj (.text:sensorTaskFxn)
                             00006654   sensortag_tmp.obj (.text:sensorTaskFxn)
                             00006664   sensortag_tmp.obj (.text:sensorTaskFxn)
                             000069f4   sensortag_hum.obj (.text:sensorTaskFxn)
                             00006a50   sensortag_hum.obj (.text:sensorTaskFxn)
                             00006a60   sensortag_hum.obj (.text:sensorTaskFxn)
                             00007b82   SensorMpu9250.obj (.text:sensorMagInit)
                             0000882e   SensorMpu9250.obj (.text:SensorMpu9250_reset)
                             00008f82   SensorMpu9250.obj (.text:SensorMpu9250_magReset)
                             00009592   SensorMpu9250.obj (.text:SensorMpu9250_test)
                             00009998   sensortag_io.obj (.text:SensorTagIO_blinkLed)
                             000099b6   sensortag_io.obj (.text:SensorTagIO_blinkLed)
                             0000bea4   SensorMpu9250.obj (.text:sensorMpu9250SetBypass)
                             0000d9d4   SensorMpu9250.obj (.text:SensorMpu9250_powerOn)
ti_sysbios_knl_Clock_Params__init__S  $Tramp$TT$L$PI$$ti_sysbios_knl_Clock_Params__init__S
   1001c185     0000ff90     00004e82   drivers_cc26xxware.aem3 : PowerCC26XX.oem3 (.text:Power_init)
                             00009de8                           : PowerCC26XX.oem3 (.text:PowerCC26XX_calibrate)
                             0000f626   RFCC26XX_singleMode.obj (.text:ti_sysbios_knl_Clock_Params_init)
                             0000f63c   icall.obj (.text:ti_sysbios_knl_Clock_Params_init)
                             0000f652   util.obj (.text:ti_sysbios_knl_Clock_Params_init)
ti_sysbios_family_arm_m3_Hwi_enableInterrupt__E  $Tramp$TT$L$PI$$ti_sysbios_family_arm_m3_Hwi_enableInterrupt__E
   1001b2dd     0000ff98     00004cb2   I2CCC26XX.obj (.text:I2CCC26XX_transfer)
                             0000515a   RFCC26XX_singleMode.obj (.text:fsmPowerUpState)
ti_sysbios_family_arm_m3_Hwi_disableInterrupt__E  $Tramp$TT$L$PI$$ti_sysbios_family_arm_m3_Hwi_disableInterrupt__E
   1001b299     0000ffa0     00004ca0   I2CCC26XX.obj (.text:I2CCC26XX_transfer)
ti_sysbios_knl_Clock_construct  $Tramp$TT$L$PI$$ti_sysbios_knl_Clock_construct
   1001b579     0000ffa8     000046a8   RFCC26XX_singleMode.obj (.text:rf_init)
                             00004e9a   drivers_cc26xxware.aem3 : PowerCC26XX.oem3 (.text:Power_init)
                             00004ea8                           : PowerCC26XX.oem3 (.text:Power_init)
                             00004eb6                           : PowerCC26XX.oem3 (.text:Power_init)
                             00005a82   RFCC26XX_singleMode.obj (.text:RF_open)
                             00009e00   drivers_cc26xxware.aem3 : PowerCC26XX.oem3 (.text:PowerCC26XX_calibrate)
                             0000aaa0   util.obj (.text:Util_constructClock)
ti_sysbios_knl_Semaphore_post__E  $Tramp$TT$L$PI$$ti_sysbios_knl_Semaphore_post__E
   1001ac41     0000ffb0     00004600   icall.obj (.text:ICall_primWaitMatch)
                             00004d26   I2CCC26XX.obj (.text:I2CCC26XX_transfer)
                             0000506c   PINCC26XX.obj (.text:PIN_open)
                             00008336   icall.obj (.text:ICall_primSend)
                             00008584   PINCC26XX.obj (.text:PIN_add)
                             00008df0   RFCC26XX_singleMode.obj (.text:fsmPowerDownState)
                             00009814   RFCC26XX_singleMode.obj (.text:syncCb)
                             0000cba4   util.obj (.text:Util_enqueueMsg)
                             0000e40a   sensortag_opt.obj (.text:SensorTagOpt_clockHandler)
                             0000e5e8   I2CCC26XX.obj (.text:I2CCC26XX_blockingCallback)
                             0000e76a   sensortag_mov.obj (.text:SensorTagMov_processInterrupt)
                             0000eb4e   sensortag.obj (.text:SensorTag_clockHandler)
                             0000eb8e   peripheral.obj (.text:gapRole_setEvent)
                             0000efa2   sensortag_batt.obj (.text:SensorTagBatt_clockHandler)
                             0000efbe   sensortag_mov.obj (.text:SensorTagMov_clockHandler)
                             0000f0d6   SPICC26XXDMA.obj (.text:SPICC26XXDMA_transferCallback)
                             0000f8f8   SensorI2C.obj (.text:SensorI2C_deselect)
                             0000fbe4   icall.obj (.text:ICall_primSignal)
ti_sysbios_knl_Semaphore_pend__E  $Tramp$TT$L$PI$$ti_sysbios_knl_Semaphore_pend__E
   1001a0cd     0000ffb8     000045e6   icall.obj (.text:ICall_primWaitMatch)
                             00004c98   I2CCC26XX.obj (.text:I2CCC26XX_transfer)
                             00004ce4   I2CCC26XX.obj (.text:I2CCC26XX_transfer)
                             00004f84   PINCC26XX.obj (.text:PIN_open)
                             000067fc   SPICC26XXDMA.obj (.text:SPICC26XXDMA_transfer)
                             00006812   SPICC26XXDMA.obj (.text:SPICC26XXDMA_transfer)
                             00007ca6   SensorI2C.obj (.text:SensorI2C_select)
                             0000802e   RFCC26XX_singleMode.obj (.text:RF_pendCmd)
                             0000853a   PINCC26XX.obj (.text:PIN_add)
                             00008d36   icall.obj (.text:ICall_primWait)
ti_sysbios_knl_Clock_getTicks__E  $Tramp$TT$L$PI$$ti_sysbios_knl_Clock_getTicks__E
   1001b6d9     0000ffc0     00004552   icall.obj (.text:ICall_primWaitMatch)
                             000045c4   icall.obj (.text:ICall_primWaitMatch)
                             0000fbd0   icall.obj (.text:ICall_primGetTicks)
ti_sysbios_knl_Task_self__E  $Tramp$TT$L$PI$$ti_sysbios_knl_Task_self__E
   1001c1e5     0000ffc8     000044e0   icall.obj (.text:ICall_primWaitMatch)
                             00006694   icall.obj (.text:ICall_primEnroll)
                             00007368   icall.obj (.text:ICall_primRegisterApp)
                             00007590   icall.obj (.text:ICall_primThreadServes)
                             0000863c   icall.obj (.text:ICall_primGetEntityId)
                             00008cca   icall.obj (.text:ICall_primWait)
                             0000b396   icall.obj (.text:ICall_primFetchMsg)
xdc_runtime_System_abortSpin__E  $Tramp$TT$L$PI$$xdc_runtime_System_abortSpin__E
   1001c899     0000ffd0     000035ba   drivers_cc26xxware.aem3 : PowerCC26XX_calibrateRCOSC.oem3 (.text:PowerCC26XX_doCalibrate)
                             0000a956                           : PowerCC26XX_calibrateRCOSC.oem3 (.text:PowerCC26XX_RCOSC_clockFunc)
ti_sysbios_knl_Swi_post__E  $Tramp$TT$L$PI$$ti_sysbios_knl_Swi_post__E
   1001b321     0000ffd8     00002d0c   I2CCC26XX.obj (.text:I2CCC26XX_hwiFxn)
                             00002d1a   I2CCC26XX.obj (.text:I2CCC26XX_hwiFxn)
                             00002e70   I2CCC26XX.obj (.text:I2CCC26XX_hwiFxn)
                             00004d0c   I2CCC26XX.obj (.text:I2CCC26XX_transfer)
                             000060c4   SPICC26XXDMA.obj (.text:SPICC26XXDMA_hwiFxn)
                             00007c82   I2CCC26XX.obj (.text:I2CCC26XX_swiFxn)
                             0000f490   rom_sysbios.aem3 : rom_sysbios.obj (.text:ti_sysbios_knl_Swi_or__E)
                             0000f9de   app_ble_pem3.oem3 (.text:ti_sysbios_knl_Clock_doTick__I)
ti_sysbios_knl_Task_restore__E  $Tramp$TT$L$PI$$ti_sysbios_knl_Task_restore__E
   1001ba49     0000ffe0     000024c4   drivers_cc26xxware.aem3 : PowerCC26XX.oem3 (.text:Power_sleep)
                             00007e5a   rom_sysbios.aem3 : rom_sysbios.obj (.text:ti_sysbios_knl_Task_setPri__E)
                             00007eea   icall.obj (.text:ICall_createRemoteTasks)
                             0000f0a2   icall.obj (.text:ICall_leaveCSImpl)
ti_sysbios_knl_Task_disable__E  $Tramp$TT$L$PI$$ti_sysbios_knl_Task_disable__E
   1001c0f5     0000ffe8     000022fe   drivers_cc26xxware.aem3 : PowerCC26XX.oem3 (.text:Power_sleep)
                             00007dd4   rom_sysbios.aem3 : rom_sysbios.obj (.text:ti_sysbios_knl_Task_setPri__E)
                             00007e72   icall.obj (.text:ICall_createRemoteTasks)
                             0000db72   app_ble_pem3.oem3 (.text:ti_sysbios_BIOS_atExitFunc__I)
                             0000f4da   icall.obj (.text:ICall_enterCSImpl)
                             0000fb78   icall.obj (.text:ICall_primDisableMInt)
ti_sysbios_knl_Swi_construct  $Tramp$TT$L$PI$$ti_sysbios_knl_Swi_construct
   1001b085     0000fff0     00001df2   PINCC26XX.obj (.text:PIN_init)
                             00003138   SPICC26XXDMA.obj (.text:SPICC26XXDMA_open)
                             00004640   RFCC26XX_singleMode.obj (.text:rf_init)
                             0000467a   RFCC26XX_singleMode.obj (.text:rf_init)
                             00004dd8   I2CCC26XX.obj (.text:I2CCC26XX_open)
ti_sysbios_family_arm_m3_Hwi_construct  $Tramp$TT$L$PI$$ti_sysbios_family_arm_m3_Hwi_construct
   1001af29     0000fff8     00001dd6   PINCC26XX.obj (.text:PIN_init)
                             0000311a   SPICC26XXDMA.obj (.text:SPICC26XXDMA_open)
                             00004662   RFCC26XX_singleMode.obj (.text:rf_init)
                             0000469c   RFCC26XX_singleMode.obj (.text:rf_init)
                             00004dba   I2CCC26XX.obj (.text:I2CCC26XX_open)
                             00009a26   UDMACC26XX.obj (.text:UDMACC26XX_open)
                             00009e10   drivers_cc26xxware.aem3 : PowerCC26XX.oem3 (.text:PowerCC26XX_calibrate)
ti_sysbios_knl_Semaphore_construct  $Tramp$TT$L$PI$$ti_sysbios_knl_Semaphore_construct
   1001b709     00010000     00001d3c   PINCC26XX.obj (.text:PIN_init)
                             00003156   SPICC26XXDMA.obj (.text:SPICC26XXDMA_open)
                             00004df0   I2CCC26XX.obj (.text:I2CCC26XX_open)
                             00004e02   I2CCC26XX.obj (.text:I2CCC26XX_open)
                             00005a6a   RFCC26XX_singleMode.obj (.text:RF_open)
                             00009914   SensorI2C.obj (.text:SensorI2C_open)
ti_sysbios_knl_Swi_restore__E  $Tramp$TT$L$PI$$ti_sysbios_knl_Swi_restore__E
   1001b5e1     00010008     000015e4   RFCC26XX_singleMode.obj (.text:abortCmd)
                             000024ba   drivers_cc26xxware.aem3 : PowerCC26XX.oem3 (.text:Power_sleep)
                             00007fcc   RFCC26XX_singleMode.obj (.text:RF_pendCmd)
                             00007fe2   RFCC26XX_singleMode.obj (.text:RF_pendCmd)
                             0000801e   RFCC26XX_singleMode.obj (.text:RF_pendCmd)
ti_sysbios_knl_Swi_disable__E  $Tramp$TT$L$PI$$ti_sysbios_knl_Swi_disable__E
   1001c0d5     00010010     0000159c   RFCC26XX_singleMode.obj (.text:abortCmd)
                             00002316   drivers_cc26xxware.aem3 : PowerCC26XX.oem3 (.text:Power_sleep)
                             00007fb6   RFCC26XX_singleMode.obj (.text:RF_pendCmd)
                             0000db6e   app_ble_pem3.oem3 (.text:ti_sysbios_BIOS_atExitFunc__I)
ti_sysbios_knl_Clock_start__E  $Tramp$TT$L$PI$$ti_sysbios_knl_Clock_start__E
   1001bfe3     00010018     00000ca8   RFCC26XX_singleMode.obj (.text:fsmActiveState)
                             00001ba8   RFCC26XX_singleMode.obj (.text:RF_postCmd)
                             00003638   drivers_cc26xxware.aem3 : PowerCC26XX_calibrateRCOSC.oem3 (.text:PowerCC26XX_doCalibrate)
                             00004f34                           : PowerCC26XX.oem3 (.text:Power_init)
                             00006b32   icall.obj (.text:ICall_primSetTimer)
                             0000700c   power_cc26xx_tirtos.aem3 : PowerCC26XX_tirtos.oem3 (.text:PowerCC26XX_standbyPolicy)
                             000088c6   drivers_cc26xxware.aem3 : PowerCC26XX.oem3 (.text:switchXOSCHFclockFunc)
                             0000909c   RFCC26XX_singleMode.obj (.text:decActiveClientCnt)
                             000090f4   drivers_cc26xxware.aem3 : PowerCC26XX.oem3 (.text:disableLFClockQualifiers)
                             0000a4fc   util.obj (.text:Util_rescheduleClock)
                             0000aaf8   RFCC26XX_singleMode.obj (.text:fsmXOSCState)
                             0000b5c6   drivers_cc26xxware.aem3 : PowerCC26XX.oem3 (.text:configureXOSCHF)
                             0000c3d4   util.obj (.text:Util_restartClock)
                             0000ec16   rom_sysbios.aem3 : rom_sysbios.obj (.text:ti_sysbios_knl_Clock_stop__E)
                             0000f96a   util.obj (.text:Util_startClock)
ti_sysbios_knl_Clock_setTimeout__E  $Tramp$TT$L$PI$$ti_sysbios_knl_Clock_setTimeout__E
   1001c2c1     00010020     00000c9a   RFCC26XX_singleMode.obj (.text:fsmActiveState)
                             00001b9e   RFCC26XX_singleMode.obj (.text:RF_postCmd)
                             00004f2e   drivers_cc26xxware.aem3 : PowerCC26XX.oem3 (.text:Power_init)
                             00006b2a   icall.obj (.text:ICall_primSetTimer)
                             00007006   power_cc26xx_tirtos.aem3 : PowerCC26XX_tirtos.oem3 (.text:PowerCC26XX_standbyPolicy)
                             000088c0   drivers_cc26xxware.aem3 : PowerCC26XX.oem3 (.text:switchXOSCHFclockFunc)
                             00009092   RFCC26XX_singleMode.obj (.text:decActiveClientCnt)
                             000090ee   drivers_cc26xxware.aem3 : PowerCC26XX.oem3 (.text:disableLFClockQualifiers)
                             0000a4e8   util.obj (.text:Util_rescheduleClock)
                             0000aaee   RFCC26XX_singleMode.obj (.text:fsmXOSCState)
                             0000b5c0   drivers_cc26xxware.aem3 : PowerCC26XX.oem3 (.text:configureXOSCHF)
                             0000c3ce   util.obj (.text:Util_restartClock)
ti_sysbios_family_arm_m3_Hwi_restoreFxn__E  $Tramp$TT$L$PI$$ti_sysbios_family_arm_m3_Hwi_restoreFxn__E
   1001c219     00010028     00000b42   RFCC26XX_singleMode.obj (.text:fsmActiveState)
                             00000c36   RFCC26XX_singleMode.obj (.text:fsmActiveState)
                             000015b4   RFCC26XX_singleMode.obj (.text:abortCmd)
                             00001626   RFCC26XX_singleMode.obj (.text:abortCmd)
                             000016c0   RFCC26XX_singleMode.obj (.text:abortCmd)
                             000016e2   RFCC26XX_singleMode.obj (.text:abortCmd)
                             00001722   RFCC26XX_singleMode.obj (.text:abortCmd)
                             00001a2c   RFCC26XX_singleMode.obj (.text:RF_postCmd)
                             00001aa4   RFCC26XX_singleMode.obj (.text:RF_postCmd)
                             00001ac4   RFCC26XX_singleMode.obj (.text:RF_postCmd)
                             00001aec   RFCC26XX_singleMode.obj (.text:RF_postCmd)
                             00001b3a   RFCC26XX_singleMode.obj (.text:RF_postCmd)
                             00001b70   RFCC26XX_singleMode.obj (.text:RF_postCmd)
                             00001bae   RFCC26XX_singleMode.obj (.text:RF_postCmd)
                             00001bb6   RFCC26XX_singleMode.obj (.text:RF_postCmd)
                             00003050   SPICC26XXDMA.obj (.text:SPICC26XXDMA_open)
                             00003062   SPICC26XXDMA.obj (.text:SPICC26XXDMA_open)
                             000030f2   SPICC26XXDMA.obj (.text:SPICC26XXDMA_open)
                             00004ace   PINCC26XX.obj (.text:PINCC26XX_setIoCfg)
                             00004c68   I2CCC26XX.obj (.text:I2CCC26XX_transfer)
                             00004c82   I2CCC26XX.obj (.text:I2CCC26XX_transfer)
                             00004d5c   I2CCC26XX.obj (.text:I2CCC26XX_open)
                             00004d6e   I2CCC26XX.obj (.text:I2CCC26XX_open)
                             00005326   RFCC26XX_singleMode.obj (.text:swiFxnHw)
                             0000535a   RFCC26XX_singleMode.obj (.text:swiFxnHw)
                             000055e0   SPICC26XXDMA.obj (.text:SPICC26XXDMA_transferCancel)
                             000055e8   SPICC26XXDMA.obj (.text:SPICC26XXDMA_transferCancel)
                             00005a00   RFCC26XX_singleMode.obj (.text:RF_open)
                             00005a0a   RFCC26XX_singleMode.obj (.text:RF_open)
                             00006332   drivers_cc26xxware.aem3 : PowerCC26XX.oem3 (.text:Power_releaseDependency)
                             000064d2                           : PowerCC26XX.oem3 (.text:Power_setDependency)
                             00006788   SPICC26XXDMA.obj (.text:SPICC26XXDMA_transfer)
                             000067a6   SPICC26XXDMA.obj (.text:SPICC26XXDMA_transfer)
                             00006fc0   I2CCC26XX.obj (.text:I2CCC26XX_cancel)
                             000077b8   TRNGCC26XX.obj (.text:TRNGCC26XX_getNumber)
                             000077f8   TRNGCC26XX.obj (.text:TRNGCC26XX_getNumber)
                             000085b6   RFCC26XX_singleMode.obj (.text:RF_getCurrentTime)
                             000085c0   RFCC26XX_singleMode.obj (.text:RF_getCurrentTime)
                             00008738   RFCC26XX_singleMode.obj (.text:RF_getInfo)
                             000088ee   drivers_cc26xxware.aem3 : PowerCC26XX.oem3 (.text:switchXOSCHFclockFunc)
                             00008ec4   I2CCC26XX.obj (.text:I2CCC26XX_close)
                             000090a2   RFCC26XX_singleMode.obj (.text:decActiveClientCnt)
                             00009312   SPICC26XXDMA.obj (.text:SPICC26XXDMA_close)
                             00009a38   UDMACC26XX.obj (.text:UDMACC26XX_open)
                             0000a230   RFCC26XX_singleMode.obj (.text:ratChanFree)
                             0000a618   RFCC26XX_singleMode.obj (.text:Q_push)
                             0000a628   RFCC26XX_singleMode.obj (.text:Q_push)
                             0000b152   drivers_cc26xxware.aem3 : PowerCC26XX_calibrateRCOSC.oem3 (.text:PowerCC26XX_initiateCalibration)
                             0000b40e   RFCC26XX_singleMode.obj (.text:RF_getRssi)
                             0000b580   UDMACC26XX.obj (.text:UDMACC26XX_close)
                             0000c492   RFCC26XX_singleMode.obj (.text:postDirImmCmd)
                             0000c4aa   RFCC26XX_singleMode.obj (.text:postDirImmCmd)
                             0000d47a   SPICC26XXDMA.obj (.text:threadSafeConstraintRelease)
                             0000d4b2   SPICC26XXDMA.obj (.text:threadSafeConstraintSet)
                             0000d6f8   drivers_cc26xxware.aem3 : PowerCC26XX.oem3 (.text:PowerCC26XX_isStableXOSC_HF)
                             0000d950                           : PowerCC26XX.oem3 (.text:Power_releaseConstraint)
                             0000d980                           : PowerCC26XX.oem3 (.text:Power_setConstraint)
                             0000da3e   TRNGCC26XX.obj (.text:TRNGCC26XX_init)
                             0000e322   drivers_cc26xxware.aem3 : PowerCC26XX.oem3 (.text:PowerCC26XX_switchXOSC_HF)
                             0000e460   TRNGCC26XX.obj (.text:TRNGCC26XX_open)
                             0000e558   drivers_cc26xxware.aem3 : List.oem3 (.text:List_put)
                             0000e6c0   RFCC26XX_singleMode.obj (.text:Q_pop)
                             0000ead0   drivers_cc26xxware.aem3 : PowerCC26XX.oem3 (.text:Power_unregisterNotify)
                             0000f09a   icall.obj (.text:ICall_leaveCSImpl)
ti_sysbios_family_arm_m3_Hwi_disableFxn__E  $Tramp$TT$L$PI$$ti_sysbios_family_arm_m3_Hwi_disableFxn__E
   1001c149     00010030     00000b2c   RFCC26XX_singleMode.obj (.text:fsmActiveState)
                             00000c0a   RFCC26XX_singleMode.obj (.text:fsmActiveState)
                             0000152a   RFCC26XX_singleMode.obj (.text:abortCmd)
                             000019e6   RFCC26XX_singleMode.obj (.text:RF_postCmd)
                             00001b5c   RFCC26XX_singleMode.obj (.text:RF_postCmd)
                             0000303e   SPICC26XXDMA.obj (.text:SPICC26XXDMA_open)
                             000030e2   SPICC26XXDMA.obj (.text:SPICC26XXDMA_open)
                             00004aa0   PINCC26XX.obj (.text:PINCC26XX_setIoCfg)
                             00004c46   I2CCC26XX.obj (.text:I2CCC26XX_transfer)
                             00004d4a   I2CCC26XX.obj (.text:I2CCC26XX_open)
                             000052be   RFCC26XX_singleMode.obj (.text:swiFxnHw)
                             000055d0   SPICC26XXDMA.obj (.text:SPICC26XXDMA_transferCancel)
                             000059e6   RFCC26XX_singleMode.obj (.text:RF_open)
                             0000627e   drivers_cc26xxware.aem3 : PowerCC26XX.oem3 (.text:Power_releaseDependency)
                             00006422                           : PowerCC26XX.oem3 (.text:Power_setDependency)
                             00006778   SPICC26XXDMA.obj (.text:SPICC26XXDMA_transfer)
                             00006f2a   I2CCC26XX.obj (.text:I2CCC26XX_cancel)
                             00007770   TRNGCC26XX.obj (.text:TRNGCC26XX_getNumber)
                             000085a2   RFCC26XX_singleMode.obj (.text:RF_getCurrentTime)
                             000086d8   RFCC26XX_singleMode.obj (.text:RF_getInfo)
                             00008878   drivers_cc26xxware.aem3 : PowerCC26XX.oem3 (.text:switchXOSCHFclockFunc)
                             00008eb4   I2CCC26XX.obj (.text:I2CCC26XX_close)
                             00009044   RFCC26XX_singleMode.obj (.text:decActiveClientCnt)
                             00009302   SPICC26XXDMA.obj (.text:SPICC26XXDMA_close)
                             000099fa   UDMACC26XX.obj (.text:UDMACC26XX_open)
                             0000a1e6   RFCC26XX_singleMode.obj (.text:ratChanFree)
                             0000a5ea   RFCC26XX_singleMode.obj (.text:Q_push)
                             0000a5f8   RFCC26XX_singleMode.obj (.text:Q_push)
                             0000b13e   drivers_cc26xxware.aem3 : PowerCC26XX_calibrateRCOSC.oem3 (.text:PowerCC26XX_initiateCalibration)
                             0000b3fe   RFCC26XX_singleMode.obj (.text:RF_getRssi)
                             0000b548   UDMACC26XX.obj (.text:UDMACC26XX_close)
                             0000c47c   RFCC26XX_singleMode.obj (.text:postDirImmCmd)
                             0000d44e   SPICC26XXDMA.obj (.text:threadSafeConstraintRelease)
                             0000d486   SPICC26XXDMA.obj (.text:threadSafeConstraintSet)
                             0000d6d6   drivers_cc26xxware.aem3 : PowerCC26XX.oem3 (.text:PowerCC26XX_isStableXOSC_HF)
                             0000d930                           : PowerCC26XX.oem3 (.text:Power_releaseConstraint)
                             0000d960                           : PowerCC26XX.oem3 (.text:Power_setConstraint)
                             0000da1e   TRNGCC26XX.obj (.text:TRNGCC26XX_init)
                             0000e306   drivers_cc26xxware.aem3 : PowerCC26XX.oem3 (.text:PowerCC26XX_switchXOSC_HF)
                             0000e44e   TRNGCC26XX.obj (.text:TRNGCC26XX_open)
                             0000e6a8   RFCC26XX_singleMode.obj (.text:Q_pop)
                             0000eac0   drivers_cc26xxware.aem3 : PowerCC26XX.oem3 (.text:Power_unregisterNotify)
                             0000f4e2   icall.obj (.text:ICall_enterCSImpl)
                             0000fb7c   icall.obj (.text:ICall_primDisableMInt)
                             0000fef4   tirtosport.aem3 : HwiP_tirtos.oem3 (.text:HwiP_disable)

[61 trampolines]
[327 trampoline calls]


GLOBAL SYMBOLS: SORTED ALPHABETICALLY BY Name 

address   name                                                                      
-------   ----                                                                      
10014c00  A1_rw                                                                     
10019ffe  A2_rw                                                                     
10019ffc  A3_rw                                                                     
20004f2c  A4_rw                                                                     
20004f7c  ACCX                                                                      
20004f80  ACCY                                                                      
20004f84  ACCZ                                                                      
10015229  ATOMICPATTERN                                                             
10016c29  AddRoundKeySubBytes_Sw                                                    
10018a19  AesCcm_authEncrypt_Sw                                                     
10018a35  AesCcm_decryptAuth_Sw                                                     
10018b09  AesCcm_getNumBlocks_Sw                                                    
10018ac5  Aes_decrypt_Sw                                                            
10018a99  Aes_encrypt_Sw                                                            
0000e4ed  AssertHandler                                                             
0000c545  Barometer_addService                                                      
0000a315  Barometer_getParameter                                                    
0000e561  Barometer_registerAppCBs                                                  
0000003d  Barometer_setParameter                                                    
0000bae9  Batt_AddService                                                           
0000d83d  Batt_MeasLevel                                                            
0000f801  Batt_Register                                                             
0000b729  Batt_SetParameter                                                         
000100ec  BoardGpioInitTable                                                        
0000b631  C$$EXIT                                                                   
20004f2c  COMMON_RAM_BASE_ADDR                                                      
10014c01  COMMON_ROM_BASE_ADDR                                                      
10015a6d  COPY                                                                      
0000fb1d  DefaultAssertCback                                                        
0000f145  DevInfo_AddService                                                        
00002709  DevInfo_SetParameter                                                      
10017959  ECC_allocWorkzone                                                         
10017961  ECC_setWin                                                                
10017969  ECDSA_sign                                                                
10017b01  ECDSA_verif                                                               
10015a11  EXPORTOPERAND                                                             
20004f78  EXPW                                                                      
20004f6c  EXPX                                                                      
20004f70  EXPY                                                                      
20004f74  EXPZ                                                                      
0000d1a1  ExtFlash_close                                                            
0000a635  ExtFlash_open                                                             
0000f075  ExtFlash_test                                                             
10016f58  FFMult2                                                                   
10017058  FFMult3                                                                   
10016d05  FFMult_Sw                                                                 
10018d6c  Fill1                                                                     
0000a695  GAPBondMgr_LinkEst                                                        
0000d59b  GAPBondMgr_LinkTerm                                                       
0000d86d  GAPBondMgr_Register                                                       
0000b779  GAPBondMgr_SetParameter                                                   
00001769  GAPRole_GetParameter                                                      
0000a6f5  GAPRole_SendUpdateParam                                                   
000005ed  GAPRole_SetParameter                                                      
0000e265  GAPRole_StartDevice                                                       
0000d5d1  GAPRole_TerminateConnection                                               
0000d1d9  GAPRole_createTask                                                        
00009c0d  GAP_DeviceInit                                                            
0000ee7d  GAP_EndDiscoverable                                                       
0000c081  GAP_GetParamValue                                                         
0000ee99  GAP_MakeDiscoverable                                                      
0000c0c9  GAP_SetParamValue                                                         
0000e8fd  GAP_TerminateAuth                                                         
0000b025  GAP_TerminateLinkReq                                                      
00009c79  GAP_UpdateAdvertisingData                                                 
0000f175  GAP_UpdateLinkParamReq                                                    
0000f18d  GAP_UpdateLinkParamReqReply                                               
0000fc9d  GATTServApp_AddService                                                    
0000ba99  GATTServApp_FindAttr                                                      
00009409  GATTServApp_InitCharCfg                                                   
00008475  GATTServApp_ProcessCCCWriteReq                                            
00005e3d  GATTServApp_ProcessCharCfg                                                
0000e80d  GATTServApp_ReadCharCfg                                                   
0000abd5  GATTServApp_RegisterService                                               
0000bec5  GATTServApp_WriteCharCfg                                                  
0000dc5d  GATT_Indication                                                           
0000dd71  GATT_Notification                                                         
0000cbf9  GATT_bm_alloc                                                             
0000e585  GATT_bm_free                                                              
10015141  GETBIT                                                                    
10015155  GETDIGIT                                                                  
100151a5  GETDIGITL2R                                                               
0000fb2d  GGS_AddService                                                            
0000d89d  GGS_SetParameter                                                          
20002fc4  HEAPMGR_SIZE                                                              
0000c589  Humidity_addService                                                       
0000a755  Humidity_getParameter                                                     
0000e5a9  Humidity_registerAppCBs                                                   
00006c0d  Humidity_setParameter                                                     
0000fef5  HwiP_disable                                                              
UNDEFED   HwiP_restore                                                              
00006f0d  I2CCC26XX_cancel                                                          
00008e51  I2CCC26XX_close                                                           
0000fa05  I2CCC26XX_control                                                         
00010318  I2CCC26XX_fxnTable                                                        
0000f1a5  I2CCC26XX_init                                                            
00004d35  I2CCC26XX_open                                                            
00004c11  I2CCC26XX_transfer                                                        
0000f879  I2C_Params_init                                                           
0000fa17  I2C_close                                                                 
00010330  I2C_config                                                                
00010548  I2C_defaultParams                                                         
0000b07d  I2C_init                                                                  
0000c111  I2C_open                                                                  
0000f4ad  I2C_transfer                                                              
0000bb81  ICallPlatform_pwrConfigACAction                                           
0000e95d  ICallPlatform_pwrDispense                                                 
0000fb3d  ICallPlatform_pwrGetTransitionState                                       
0000f88d  ICallPlatform_pwrGetXOSCStartupTime                                       
0000fb4d  ICallPlatform_pwrIsStableXOSCHF                                           
000078b5  ICallPlatform_pwrRegisterNotify                                           
0000e97d  ICallPlatform_pwrRequire                                                  
0000fd0d  ICallPlatform_pwrSwitchXOSCHF                                             
00008215  ICallPlatform_pwrUpdActivityCounter                                       
00007e6d  ICall_createRemoteTasks                                                   
20000e74  ICall_dispatcher                                                          
0000f4d9  ICall_enterCSImpl                                                         
20000e6c  ICall_enterCriticalSection                                                
0000fd19  ICall_freeImpl                                                            
0000c97d  ICall_heapFree                                                            
00006ccd  ICall_heapInit                                                            
00003c05  ICall_heapMalloc                                                          
00009ce5  ICall_init                                                                
0000f08f  ICall_leaveCSImpl                                                         
20000e70  ICall_leaveCriticalSection                                                
0000fcab  ICall_mallocImpl                                                          
0000a815  ICall_searchServiceEntity                                                 
10015a35  IMPORTDATA                                                                
100159a9  IMPORTLENGTH                                                              
100159ad  IMPORTMODULUS                                                             
100159d1  IMPORTOPERAND                                                             
1001568d  INVERT                                                                    
0000c699  IRTemp_addService                                                         
0000a875  IRTemp_getParameter                                                       
0000e5f1  IRTemp_registerAppCBs                                                     
0000634d  IRTemp_setParameter                                                       
10016da1  InvAddRoundKey_Sw                                                         
10016ed5  InvMixColumns_Sw                                                          
10016dc9  InvRoundKey_Sw                                                            
10017264  InvSbox                                                                   
10016ea1  InvShiftRows_Sw                                                           
10016e8d  InvSubBytes_Sw                                                            
0000c6dd  Io_addService                                                             
0000bbcd  Io_getParameter                                                           
0000e9fd  Io_registerAppCBs                                                         
00007f09  Io_setParameter                                                           
100154f5  JACADD                                                                    
20004fe8  LEN                                                                       
100158ac  LUTC                                                                      
100158dc  LUTINCI                                                                   
100158f4  LUTJ                                                                      
1001588c  LUTOPCODE                                                                 
10015894  LUTOPSIGN                                                                 
100158c4  LUTSE                                                                     
1001596c  LUTSTATE                                                                  
0000fec5  List_empty                                                                
00000481  List_head                                                                 
0000fef9  List_next                                                                 
0000e539  List_put                                                                  
0000f0a9  List_remove                                                               
10018825  MB_ClearInts                                                              
100187f5  MB_DisableInts                                                            
10018835  MB_EnableHWInts                                                           
10018799  MB_EnableInts                                                             
10018945  MB_FwDebugDump                                                            
10018755  MB_Init                                                                   
10018935  MB_ReadMailboxStatus                                                      
1001893d  MB_RegisterIsrCback                                                       
10018865  MB_SendCommand                                                            
100188a5  MB_SendCommandSynch                                                       
20004fe4  MOD                                                                       
20004fd8  MSBMOD                                                                    
10016c79  MixColumns_Sw                                                             
0000c721  Movement_addService                                                       
0000ace9  Movement_getParameter                                                     
0000e615  Movement_registerAppCBs                                                   
00006b49  Movement_setParameter                                                     
10018b9c  NIST_Curve_P256_Gx                                                        
10018bc0  NIST_Curve_P256_Gy                                                        
10018b54  NIST_Curve_P256_a                                                         
10018b78  NIST_Curve_P256_b                                                         
10018b0c  NIST_Curve_P256_p                                                         
10018b30  NIST_Curve_P256_r                                                         
0000e2dd  NOROM_AONBatMonTemperatureGetDegC                                         
0000f8a1  NOROM_AONRTCCurrent64BitValueGet                                          
0000f205  NOROM_AONRTCCurrentCompareValueGet                                        
0000fd31  NOROM_CPUcpsid                                                            
0000fd3d  NOROM_CPUcpsie                                                            
0000fee3  NOROM_CPUdelay                                                            
0000c159  NOROM_ChipInfo_GetChipFamily                                              
0000981d  NOROM_ChipInfo_GetHwRevision                                              
0000f21d  NOROM_ChipInfo_GetPackageType                                             
0000c9bd  NOROM_DDI16BitfieldRead                                                   
0000c1a1  NOROM_DDI16BitfieldWrite                                                  
0000df55  NOROM_DDI32RegWrite                                                       
0000eeed  NOROM_OSCClockSourceGet                                                   
0000bc19  NOROM_OSCClockSourceSet                                                   
0000ad45  NOROM_OSCHF_AttemptToSwitchToXosc                                         
00008905  NOROM_OSCHF_GetStartupTime                                                
0000d66d  NOROM_OSCHF_SwitchToRcOscTurnOffXosc                                      
0000f235  NOROM_OSCHF_TurnOnXosc                                                    
0000d031  NOROM_OSC_HPOSCRelativeFrequencyOffsetGet                                 
00000501  NOROM_RFCAdi3VcoLdoVoltageMode                                            
0000f24d  NOROM_RFCCpeIntGetAndClear                                                
0000ea1d  NOROM_RFCDoorbellSendTo                                                   
00004617  NOROM_RFCRTrim                                                            
0000ea3d  NOROM_RFCRfTrimRead                                                       
0000fbed  NOROM_RFCRfTrimSet                                                        
0000d06d  NOROM_RFCSynthPowerDown                                                   
000091b5  NOROM_SetupAfterColdResetWakeupFromShutDownCfg1                           
00005d59  NOROM_SetupAfterColdResetWakeupFromShutDownCfg2                           
00004891  NOROM_SetupAfterColdResetWakeupFromShutDownCfg3                           
0000f265  NOROM_SetupGetTrimForAdcShModeEn                                          
0000f27d  NOROM_SetupGetTrimForAdcShVbufEn                                          
00009d51  NOROM_SetupGetTrimForAmpcompCtrl                                          
0000f295  NOROM_SetupGetTrimForAmpcompTh1                                           
0000ef09  NOROM_SetupGetTrimForAmpcompTh2                                           
00009f6d  NOROM_SetupGetTrimForAnabypassValue1                                      
0000f2ad  NOROM_SetupGetTrimForDblrLoopFilterResetVoltage                           
0000df81  NOROM_SetupGetTrimForRadcExtCfg                                           
0000f2c5  NOROM_SetupGetTrimForRcOscLfIBiasTrim                                     
0000ef25  NOROM_SetupGetTrimForRcOscLfRtuneCtuneTrim                                
0000ea5d  NOROM_SetupGetTrimForXoscHfCtl                                            
0000fbfd  NOROM_SetupGetTrimForXoscHfFastStart                                      
0000fc0d  NOROM_SetupGetTrimForXoscHfIbiastherm                                     
0000f2dd  NOROM_SetupGetTrimForXoscLfRegulatorAndCmirrwrRatio                       
0000d8fd  NOROM_SetupSetAonRtcSubSecInc                                             
0000b819  NOROM_SetupSetCacheModeAccordingToCcfgSetting                             
0000fcb9  NOROM_SetupSignExtendVddrTrimValue                                        
000079fd  NOROM_SetupTrimDevice                                                     
0000ada1  NOROM_SysCtrlAdjustRechargeAfterPowerDown                                 
00002505  NOROM_SysCtrlSetRechargeBeforePowerDown                                   
00009fd5  NOROM_SysCtrl_DCDC_VoltageConditionalControl                              
0000d6a1  NOROM_TRNGConfigure                                                       
0000f8b5  NOROM_ThisCodeIsBuiltForCC26xxHwRev22AndLater_HaltIfViolated              
0000fcc7  NOROM_VIMSModeGet                                                         
0000c765  Optic_addService                                                          
0000a8d5  Optic_getParameter                                                        
0000e639  Optic_registerAppCBs                                                      
00006d8d  Optic_setParameter                                                        
10014c04  P1_ro                                                                     
10019ffe  P1_ro_2                                                                   
20004f40  P2_rw                                                                     
20004f40  P2_s0                                                                     
20004fac  P2_zi                                                                     
0000988d  PINCC26XX_getConfig                                                       
0000dfad  PINCC26XX_getPinCount                                                     
0001060c  PINCC26XX_hwAttrs                                                         
0000c9fd  PINCC26XX_setMux                                                          
200028b4  PIN_HandleTable                                                           
20002fc8  PIN_NumPins                                                               
0000850d  PIN_add                                                                   
0000e681  PIN_close                                                                 
0000ea9d  PIN_getConfig                                                             
0000fc1d  PIN_getOutputValue                                                        
00001c1d  PIN_init                                                                  
00004f71  PIN_open                                                                  
0000ef41  PIN_registerIntCb                                                         
00008345  PIN_remove                                                                
0000ca3d  PIN_setConfig                                                             
0000c7a9  PIN_setInterrupt                                                          
0000ca7d  PIN_setOutputValue                                                        
0000a935  PowerCC26XX_RCOSC_clockFunc                                               
000094f1  PowerCC26XX_auxISR                                                        
00009dbd  PowerCC26XX_calibrate                                                     
00010558  PowerCC26XX_config                                                        
000034dd  PowerCC26XX_doCalibrate                                                   
00008905  PowerCC26XX_getXoscStartupTime                                            
0000b12d  PowerCC26XX_initiateCalibration                                           
0000d6d5  PowerCC26XX_isStableXOSC_HF                                               
20000650  PowerCC26XX_module                                                        
00006fc9  PowerCC26XX_standbyPolicy                                                 
0000e305  PowerCC26XX_switchXOSC_HF                                                 
0000fd49  Power_getConstraintMask                                                   
0000fd55  Power_getDependencyCount                                                  
0000ec25  Power_getTransitionLatency                                                
0000fd61  Power_getTransitionState                                                  
0000f2f5  Power_idleFunc                                                            
00004e55  Power_init                                                                
0000e32d  Power_registerNotify                                                      
0000d92d  Power_releaseConstraint                                                   
00006279  Power_releaseDependency                                                   
0000d95d  Power_setConstraint                                                       
0000641d  Power_setDependency                                                       
000022dd  Power_sleep                                                               
0000eabd  Power_unregisterNotify                                                    
10017158  RCon                                                                      
0001069c  RFCC26XX_hwAttrs                                                          
10018415  RFHAL_AddTxDataEntry                                                      
100184f9  RFHAL_AllocDataEntry                                                      
100184a9  RFHAL_AllocDataEntryQueue                                                 
10018315  RFHAL_AllocRatChan                                                        
100185e1  RFHAL_BuildDataEntryRingBuffer                                            
10018669  RFHAL_BuildLinkedBuffer                                                   
10018551  RFHAL_BuildRingBuffer                                                     
10018549  RFHAL_FreeDataEntry                                                       
100184c5  RFHAL_FreeDataEntryQueue                                                  
10018485  RFHAL_FreeNextTxDataEntry                                                 
1001833d  RFHAL_FreeRatChan                                                         
100184cd  RFHAL_GetNextDataEntry                                                    
100184d1  RFHAL_GetTempDataEntry                                                    
100183b9  RFHAL_InitDataQueue                                                       
100182ad  RFHAL_InitRfHal                                                           
10018369  RFHAL_MapRatChansToInt                                                    
100184d5  RFHAL_NextDataEntryDone                                                   
100183c5  RFHAL_QueueRFDataEntries                                                  
10018391  RFHAL_RegisterRatChanCallback                                             
0000f30d  RF_Params_init                                                            
0000ef5d  RF_cancelCmd                                                              
0000eadd  RF_flushCmd                                                               
0000eafd  RF_getCmdOp                                                               
000085a1  RF_getCurrentTime                                                         
000086c5  RF_getInfo                                                                
0000b3e5  RF_getRssi                                                                
000059a9  RF_open                                                                   
00007fa5  RF_pendCmd                                                                
000019d5  RF_postCmd                                                                
0000a03d  RF_runCmd                                                                 
0000e6c9  RF_runDirectCmd                                                           
0000e6ed  RF_runImmediateCmd                                                        
0000f8dd  RegisterAssertCback                                                       
0000c875  ResetISR                                                                  
10016b79  RoundKey_Sw                                                               
10015101  SAVEPOINT                                                                 
20004f68  SCAL                                                                      
100150e5  SCALARMUL                                                                 
10014ced  SCALARMUL_core                                                            
10015019  SCALARMUL_final                                                           
10014c05  SCALARMUL_init                                                            
10015a51  SETOPERAND                                                                
10015a91  SETWORD                                                                   
10018089  SHA256_final                                                              
10018129  SHA256_full                                                               
10017ffd  SHA256_init                                                               
10017ef1  SHA256_nextState                                                          
10018019  SHA256_process                                                            
10017e75  SHA256_round                                                              
10017f49  SHA256_saveBuffer                                                         
10017e39  SHA256_updateW                                                            
UNDEFED   SHT$$INIT_ARRAY$$Base                                                     
UNDEFED   SHT$$INIT_ARRAY$$Limit                                                    
000092a5  SPICC26XXDMA_close                                                        
000051a1  SPICC26XXDMA_control                                                      
000102fc  SPICC26XXDMA_fxnTable                                                     
0000eb1d  SPICC26XXDMA_init                                                         
00003029  SPICC26XXDMA_open                                                         
00006759  SPICC26XXDMA_transfer                                                     
000055bd  SPICC26XXDMA_transferCancel                                               
0000f325  SPI_Params_init                                                           
0000fa3b  SPI_close                                                                 
00010294  SPI_config                                                                
000102dc  SPI_defaultParams                                                         
0000c279  SPI_open                                                                  
0000f51b  SPI_transfer                                                              
10015821  SQUAREMULTIPLYWORD                                                        
10017895  SSP_CCM_Auth_Encrypt_Sw                                                   
10017365  SSP_CCM_Auth_Sw                                                           
1001767d  SSP_CCM_Decrypt_Sw                                                        
100174fd  SSP_CCM_Encrypt_Sw                                                        
100178f5  SSP_CCM_InvAuth_Decrypt_Sw                                                
10017839  SSP_CCM_InvAuth_Sw                                                        
10017771  SSP_CTR_Decrypt_Sw                                                        
100175ed  SSP_CTR_Encrypt_Sw                                                        
0000e355  SafeHapiVoid                                                              
10017164  Sbox                                                                      
10015215  SelectReg                                                                 
000031bd  SensorBmp280_convert                                                      
0000d565  SensorBmp280_enable                                                       
0000c7ed  SensorBmp280_init                                                         
0000afc9  SensorBmp280_read                                                         
000060cd  SensorBmp280_test                                                         
0000d709  SensorHdc1000_init                                                        
00008ecd  SensorHdc1000_read                                                        
0000d98d  SensorHdc1000_start                                                       
00008755  SensorHdc1000_test                                                        
0000f8f1  SensorI2C_deselect                                                        
000098fd  SensorI2C_open                                                            
0000bc65  SensorI2C_read                                                            
0000ef79  SensorI2C_readReg                                                         
00007c8d  SensorI2C_select                                                          
0000bcb1  SensorI2C_write                                                           
0000b439  SensorI2C_writeRead                                                       
00009e29  SensorI2C_writeReg                                                        
0000c4b9  SensorMpu9250_accRead                                                     
0000c2c1  SensorMpu9250_accReadRange                                                
00009e95  SensorMpu9250_accSetRange                                                 
0000c309  SensorMpu9250_enable                                                      
00003e99  SensorMpu9250_enableWom                                                   
0000c4ff  SensorMpu9250_gyroRead                                                    
0000d251  SensorMpu9250_init                                                        
0000d0a9  SensorMpu9250_irqStatus                                                   
00003aad  SensorMpu9250_magRead                                                     
00008f49  SensorMpu9250_magReset                                                    
0000b48d  SensorMpu9250_magTest                                                     
0000f0dd  SensorMpu9250_powerIsOn                                                   
0000e37d  SensorMpu9250_powerOff                                                    
0000d9bd  SensorMpu9250_powerOn                                                     
0000f905  SensorMpu9250_registerCallback                                            
000087e5  SensorMpu9250_reset                                                       
00009565  SensorMpu9250_test                                                        
000095d9  SensorOpt3001_convert                                                     
0000d165  SensorOpt3001_enable                                                      
0000fd79  SensorOpt3001_init                                                        
0000931b  SensorOpt3001_read                                                        
0000a2ad  SensorOpt3001_test                                                        
0000d289  SensorTagBar_createTask                                                   
0000d2c1  SensorTagBar_init                                                         
000071f9  SensorTagBar_processCharChangeEvt                                         
0000e3a5  SensorTagBar_reset                                                        
0000d73d  SensorTagBatt_init                                                        
0000e005  SensorTagBatt_processCharChangeEvt                                        
0000f39d  SensorTagBatt_processSensorEvent                                          
0000e3cd  SensorTagBatt_reset                                                       
0000e031  SensorTagBuzzer_close                                                     
0000c831  SensorTagBuzzer_open                                                      
00007615  SensorTagBuzzer_setFrequency                                              
0000d2f9  SensorTagHum_createTask                                                   
0000d9ed  SensorTagHum_init                                                         
00007aa1  SensorTagHum_processCharChangeEvt                                         
0000e735  SensorTagHum_reset                                                        
0000996d  SensorTagIO_blinkLed                                                      
0000e05d  SensorTagIO_init                                                          
00005c71  SensorTagIO_processCharChangeEvt                                          
0000bcfd  SensorTagIO_reset                                                         
00008d49  SensorTagMov_init                                                         
00005f19  SensorTagMov_processCharChangeEvt                                         
00003351  SensorTagMov_processSensorEvent                                           
0000e089  SensorTagMov_reset                                                        
0000a995  SensorTagOpt_init                                                         
00007141  SensorTagOpt_processCharChangeEvt                                         
0000a441  SensorTagOpt_processSensorEvent                                           
0000cabd  SensorTagOpt_reset                                                        
0000d331  SensorTagTmp_createTask                                                   
0000e0b5  SensorTagTmp_init                                                         
000076bd  SensorTagTmp_processCharChangeEvt                                         
0000e41d  SensorTagTmp_reset                                                        
0000f0f7  SensorTag_charValueChangeCB                                               
0000d369  SensorTag_createTask                                                      
00006e4d  SensorTag_testExecute                                                     
0000fd85  SensorTag_testResult                                                      
0000e77d  SensorTag_updateAdvertisingData                                           
0000a9f5  SensorTmp007_enable                                                       
0000fed9  SensorTmp007_init                                                         
00006825  SensorTmp007_read                                                         
000053b9  SensorTmp007_test                                                         
0000b235  SensorUtil_convertToLe                                                    
10016c45  ShiftRows_Sw                                                              
20004f88  TMP1                                                                      
20004f8c  TMP2                                                                      
20004f90  TMP3                                                                      
20004f94  TMP4                                                                      
20004f98  TMP5                                                                      
20004f9c  TMP6                                                                      
000106a0  TRNGCC26XXHWAttrs                                                         
00010568  TRNGCC26XX_config                                                         
00007765  TRNGCC26XX_getNumber                                                      
0000da1d  TRNGCC26XX_init                                                           
0000b4e1  TRNGCC26XX_isParamValid                                                   
0000e445  TRNGCC26XX_open                                                           
0000b535  UDMACC26XX_close                                                          
00010578  UDMACC26XX_config                                                         
0000f92d  UDMACC26XX_hwiIntFxn                                                      
000099dd  UDMACC26XX_open                                                           
0000aa55  Util_constructClock                                                       
0000f941  Util_constructQueue                                                       
0000e46d  Util_dequeueMsg                                                           
0000cb7b  Util_enqueueMsg                                                           
0000efe9  Util_isActive                                                             
0000a4a5  Util_rescheduleClock                                                      
0000c399  Util_restartClock                                                         
0000f95d  Util_startClock                                                           
0000f971  Util_stopClock                                                            
10015a85  ZERO                                                                      
00000000  __ASM__                                                                   
00000085  __ISA__                                                                   
00000097  __PLAT__                                                                  
20004428  __STACK_END                                                               
00000400  __STACK_SIZE                                                              
20004428  __STACK_TOP                                                               
000000be  __TARG__                                                                  
0001f9c4  __TI_CINIT_Base                                                           
0001fa44  __TI_CINIT_Limit                                                          
0001f9bc  __TI_Handler_Table_Base                                                   
0001f9c4  __TI_Handler_Table_Limit                                                  
00007d2d  __TI_auto_init                                                            
20000e48  __TI_cleanup_ptr                                                          
0000fcf1  __TI_decompress_none                                                      
0000fee9  __TI_decompress_rle24                                                     
20000e4c  __TI_dtors_ptr                                                            
20000e50  __TI_enable_exit_profile_output                                           
ffffffff  __TI_pprof_out_hndl                                                       
ffffffff  __TI_prof_data_size                                                       
ffffffff  __TI_prof_data_start                                                      
0001f000  __TI_static_base__                                                        
000000e3  __TRDR__                                                                  
00008c3d  __aeabi_cdrcmple                                                          
00009b9d  __aeabi_d2f                                                               
000056b9  __aeabi_dmul                                                              
0000d411  __aeabi_f2d                                                               
000057b9  __aeabi_fadd                                                              
000057b5  __aeabi_fsub                                                              
0000f445  __aeabi_lmul                                                              
00009139  __aeabi_memclr                                                            
00009139  __aeabi_memclr4                                                           
00009139  __aeabi_memclr8                                                           
00008041  __aeabi_memcpy                                                            
00008041  __aeabi_memcpy4                                                           
00008041  __aeabi_memcpy8                                                           
0000913b  __aeabi_memset                                                            
0000913b  __aeabi_memset4                                                           
0000913b  __aeabi_memset8                                                           
0000ebbd  __aeabi_ui2d                                                              
00002901  __aeabi_uldivmod                                                          
ffffffff  __binit__                                                                 
ffffffff  __c_args__                                                                
0001ffa8  __ccfg                                                                    
10019ffe  __checksum_CommonROM                                                      
10014c00  __checksum_begin_CommonROM                                                
10019ffd  __checksum_end_CommonROM                                                  
0000e0ea  __checksum_value_CommonROM                                                
10018ced  __exit                                                                    
20004028  __stack                                                                   
0000f42d  _args_main                                                                
0000c875  _c_int00                                                                  
20000ed8  _lock                                                                     
0000f9bb  _nop                                                                      
0000f9b3  _register_lock                                                            
0000f9ad  _register_unlock                                                          
20000edc  _unlock                                                                   
0000b635  abort                                                                     
20000f94  appAssertCback                                                            
20004fdc  aux64                                                                     
00010594  battCBs                                                                   
00010545  battLevelUUID                                                             
000106b8  battServUUID                                                              
ffffffff  binit                                                                     
000106ba  charFormatUUID                                                            
000106bc  characterUUID                                                             
000106be  clientCharCfgUUID                                                         
0000be2d  copy_in                                                                   
000106c0  devInfo11073CertUUID                                                      
000105a0  devInfoCBs                                                                
000106c2  devInfoFirmwareRevUUID                                                    
000106c4  devInfoHardwareRevUUID                                                    
000106c6  devInfoMfrNameUUID                                                        
000106c8  devInfoModelNumberUUID                                                    
000106ca  devInfoPnpIdUUID                                                          
000106cc  devInfoSerialNumberUUID                                                   
000106ce  devInfoServUUID                                                           
000106d0  devInfoSoftwareRevUUID                                                    
000106d2  devInfoSystemIdUUID                                                       
0000f005  driverTable_fnSpinlock                                                    
20002fdb  driverlib_release_0_46593                                                 
10017dbd  eccRom_genKeys                                                            
10017ded  eccRom_genSharedSecret                                                    
20004fa0  eccRom_param_Gx                                                           
20004fa4  eccRom_param_Gy                                                           
20004f50  eccRom_param_a                                                            
20004fa8  eccRom_param_b                                                            
20004f48  eccRom_param_p                                                            
20004f4c  eccRom_param_r                                                            
20004f40  eccRom_windowSize                                                         
20004f44  eccRom_workzone                                                           
0000b63d  exit                                                                      
20004fcc  fwInfoCmd                                                                 
20000e84  gapProfileState                                                           
20002ad0  gapRoleTask                                                               
20002218  gapRoleTaskStack                                                          
0000fdb5  gapRole_clockHandler                                                      
20002fcc  hGpioPin                                                                  
20004028  heapEnd                                                                   
20002fde  heapStart                                                                 
00010360  i2cCC26xxHWAttrs                                                          
20002688  i2cCC26xxObjects                                                          
20004f58  inPointX                                                                  
20004f5c  inPointY                                                                  
20004f54  inScalar                                                                  
000105ac  ioCBs                                                                     
000103d5  ioConfUUID                                                                
000103e5  ioDataUUID                                                                
000103f5  ioServUUID                                                                
20000e78  lastAppOpcodeSent                                                         
20002fdc  linkDBNumConns                                                            
0000d0e5  linkDB_NumConns                                                           
10016551  mADD                                                                      
10015bd5  mINVK                                                                     
10015f81  mMULT                                                                     
10016749  mOUT                                                                      
10015a9d  mSET                                                                      
1001664d  mSUB                                                                      
0000d121  main                                                                      
20000f98  main_func_sp                                                              
10018949  mbCmdAckIsr                                                               
1001895d  mbCpe0Isr                                                                 
10018985  mbCpe1Isr                                                                 
100189e5  mbHwIsr                                                                   
0000e8d9  memcmp                                                                    
00008041  memcpy                                                                    
00009141  memset                                                                    
0000eb9d  openTRNG                                                                  
0000b959  osal_snv_read                                                             
0000b9a9  osal_snv_write                                                            
20004f60  outPointX                                                                 
20004f64  outPointY                                                                 
20004ffc  pSspAesEncrypt_Sw                                                         
20000e7c  pfnBMAlloc                                                                
20000e80  pfnBMFree                                                                 
20002f68  pinGpioState                                                              
000106d4  primaryServiceUUID                                                        
20004fac  ratChanInfo                                                               
000106d6  reportRefUUID                                                             
00010154  resourceDB                                                                
000101a0  rfDriverTable                                                             
20000a90  rfRegTbl                                                                  
20002fdd  selfEntityMain                                                            
20002fd0  sem                                                                       
00010234  spiCC26XXDMAHWAttrs                                                       
200023d0  spiCC26XXDMAObjects                                                       
10016d29  sspAesDecrypt_Sw                                                          
10016af5  sspAesEncryptBasic_Sw                                                     
10016a99  sspAesEncryptKeyExp_Sw                                                    
10016979  sspAesEncrypt_Sw                                                          
10016985  sspKeyExpansion_Sw                                                        
10016975  ssp_KeyInit_Sw                                                            
0000f9c1  strlen                                                                    
200001a4  ti_sysbios_BIOS_Module__state__V                                          
1001bc29  ti_sysbios_BIOS_RtsGateProxy_Handle__label__S                             
UNDEFED   ti_sysbios_BIOS_RtsGateProxy_Handle__label__S__mangled__                  
1001bab9  ti_sysbios_BIOS_RtsGateProxy_Object__delete__S                            
UNDEFED   ti_sysbios_BIOS_RtsGateProxy_Object__delete__S__mangled__                 
1001c179  ti_sysbios_BIOS_RtsGateProxy_Params__init__S                              
UNDEFED   ti_sysbios_BIOS_RtsGateProxy_Params__init__S__mangled__                   
1001c249  ti_sysbios_BIOS_RtsGateProxy_enter__E                                     
1001c24d  ti_sysbios_BIOS_RtsGateProxy_leave__E                                     
1001c275  ti_sysbios_BIOS_RtsGateProxy_query__E                                     
UNDEFED   ti_sysbios_BIOS_RtsGateProxy_query__E__mangled__                          
0000db6d  ti_sysbios_BIOS_atExitFunc__I                                             
0000f573  ti_sysbios_BIOS_exitFunc__I                                               
1001c035  ti_sysbios_BIOS_exit__E                                                   
1001bff9  ti_sysbios_BIOS_getCpuFreq__E                                             
0000fdc1  ti_sysbios_BIOS_getThreadType__E                                          
000058af  ti_sysbios_BIOS_linkedWithIncorrectBootLibrary__E                         
00007c8b  ti_sysbios_BIOS_nullFunc__I                                               
0000e7c5  ti_sysbios_BIOS_registerRTSLock__I                                        
0000e7e9  ti_sysbios_BIOS_removeRTSLock__I                                          
0000ebdd  ti_sysbios_BIOS_rtsLock__I                                                
0000f45d  ti_sysbios_BIOS_rtsUnlock__I                                              
1001c045  ti_sysbios_BIOS_setThreadType__E                                          
0000dba5  ti_sysbios_BIOS_startFunc__I                                              
1001c055  ti_sysbios_BIOS_start__E                                                  
000079fd  ti_sysbios_family_arm_cc26xx_Boot_trimDevice                              
00000502  ti_sysbios_family_arm_cc26xx_Timer_Module__id__C                          
1001bb49  ti_sysbios_family_arm_cc26xx_Timer_Module__startupDone__S                 
200001e4  ti_sysbios_family_arm_cc26xx_Timer_Module__state__V                       
1001ba71  ti_sysbios_family_arm_cc26xx_Timer_Module_startup__E                      
20000b30  ti_sysbios_family_arm_cc26xx_Timer_Object__table__V                       
0000f059  ti_sysbios_family_arm_cc26xx_Timer_dynamicStub__E                         
0000ff01  ti_sysbios_family_arm_cc26xx_Timer_getCount64__E                          
0000d4b9  ti_sysbios_family_arm_cc26xx_Timer_getCurrentTick__E                      
1001c251  ti_sysbios_family_arm_cc26xx_Timer_getExpiredTicks__E                     
0000e49d  ti_sysbios_family_arm_cc26xx_Timer_getMaxTicks__E                         
1001c255  ti_sysbios_family_arm_cc26xx_Timer_getPeriod__E                           
0000dbfd  ti_sysbios_family_arm_cc26xx_Timer_initDevice__I                          
1001a469  ti_sysbios_family_arm_cc26xx_Timer_periodicStub__E                        
1001b769  ti_sysbios_family_arm_cc26xx_Timer_postInit__I                            
0000d809  ti_sysbios_family_arm_cc26xx_Timer_setNextTick__E                         
1001c259  ti_sysbios_family_arm_cc26xx_Timer_setPeriod__E                           
0000dc2d  ti_sysbios_family_arm_cc26xx_Timer_setThreshold__I                        
0000a56d  ti_sysbios_family_arm_cc26xx_Timer_start__E                               
00000484  ti_sysbios_family_arm_cc26xx_Timer_startupNeeded__C                       
1001b795  ti_sysbios_family_arm_cc26xx_Timer_startup__E                             
200001ec  ti_sysbios_family_arm_cc26xx_TimestampProvider_Module__state__V           
1001bb69  ti_sysbios_family_arm_cc26xx_TimestampProvider_Module_startup__E          
0000fcff  ti_sysbios_family_arm_cc26xx_TimestampProvider_get32__E                   
1001b9d1  ti_sysbios_family_arm_cc26xx_TimestampProvider_get64__E                   
1001c12f  ti_sysbios_family_arm_cc26xx_TimestampProvider_getFreq__E                 
00000504  ti_sysbios_family_arm_cc26xx_TimestampProvider_useClockTimer__C           
00000488  ti_sysbios_family_arm_m3_Hwi_E_alreadyDefined__C                          
0000048c  ti_sysbios_family_arm_m3_Hwi_E_hwiLimitExceeded__C                        
1001aed1  ti_sysbios_family_arm_m3_Hwi_Instance_finalize__E                         
1001a3c9  ti_sysbios_family_arm_m3_Hwi_Instance_init__E                             
20000e9a  ti_sysbios_family_arm_m3_Hwi_Module_State_0_excActive__A                  
20000fc4  ti_sysbios_family_arm_m3_Hwi_Module_State_0_excContext__A                 
20000fc8  ti_sysbios_family_arm_m3_Hwi_Module_State_0_excStack__A                   
00000506  ti_sysbios_family_arm_m3_Hwi_Module__id__C                                
20000f18  ti_sysbios_family_arm_m3_Hwi_Module__root__V                              
1001bb89  ti_sysbios_family_arm_m3_Hwi_Module__startupDone__S                       
20000144  ti_sysbios_family_arm_m3_Hwi_Module__state__V                             
1001b1c1  ti_sysbios_family_arm_m3_Hwi_Module_startup__E                            
00000490  ti_sysbios_family_arm_m3_Hwi_NUM_INTERRUPTS__C                            
000002d0  ti_sysbios_family_arm_m3_Hwi_Object__DESC__C                              
00000170  ti_sysbios_family_arm_m3_Hwi_Object__PARAMS__C                            
00000494  ti_sysbios_family_arm_m3_Hwi_Object__count__C                             
1001aab1  ti_sysbios_family_arm_m3_Hwi_Object__create__S                            
1001bba9  ti_sysbios_family_arm_m3_Hwi_Object__delete__S                            
1001be69  ti_sysbios_family_arm_m3_Hwi_Object__destruct__S                          
1001b7c1  ti_sysbios_family_arm_m3_Hwi_Object__get__S                               
00000498  ti_sysbios_family_arm_m3_Hwi_Object__table__C                             
20000d4c  ti_sysbios_family_arm_m3_Hwi_Object__table__V                             
1001c13d  ti_sysbios_family_arm_m3_Hwi_Params__init__S                              
0000049c  ti_sysbios_family_arm_m3_Hwi_ccr__C                                       
1001af29  ti_sysbios_family_arm_m3_Hwi_construct                                    
1001ab15  ti_sysbios_family_arm_m3_Hwi_create                                       
1001c25d  ti_sysbios_family_arm_m3_Hwi_delete                                       
1001c261  ti_sysbios_family_arm_m3_Hwi_destruct                                     
1001c149  ti_sysbios_family_arm_m3_Hwi_disableFxn__E                                
1001b299  ti_sysbios_family_arm_m3_Hwi_disableInterrupt__E                          
1001aa49  ti_sysbios_family_arm_m3_Hwi_dispatchC__I                                 
20002768  ti_sysbios_family_arm_m3_Hwi_dispatchTable                                
1001c89d  ti_sysbios_family_arm_m3_Hwi_dispatch__I                                  
1001c1fb  ti_sysbios_family_arm_m3_Hwi_doSwiRestore__I                              
1001c213  ti_sysbios_family_arm_m3_Hwi_doTaskRestore__I                             
1001c155  ti_sysbios_family_arm_m3_Hwi_enableFxn__E                                 
1001b2dd  ti_sysbios_family_arm_m3_Hwi_enableInterrupt__E                           
1001ca01  ti_sysbios_family_arm_m3_Hwi_excHandlerAsm__I                             
000004a0  ti_sysbios_family_arm_m3_Hwi_excHandlerFunc__C                            
1001bbc9  ti_sysbios_family_arm_m3_Hwi_excHandler__I                                
1001b465  ti_sysbios_family_arm_m3_Hwi_getStackInfo__E                              
1001a699  ti_sysbios_family_arm_m3_Hwi_initNVIC__E                                  
1001c9b9  ti_sysbios_family_arm_m3_Hwi_initStacks__E                                
000004a4  ti_sysbios_family_arm_m3_Hwi_nullIsrFunc__C                               
000004a8  ti_sysbios_family_arm_m3_Hwi_numSparseInterrupts__C                       
e000e000  ti_sysbios_family_arm_m3_Hwi_nvic                                         
1001ca3f  ti_sysbios_family_arm_m3_Hwi_pendSV__I                                    
1001c065  ti_sysbios_family_arm_m3_Hwi_plug__E                                      
1001a319  ti_sysbios_family_arm_m3_Hwi_postInit__I                                  
0000fc4d  ti_sysbios_family_arm_m3_Hwi_post__E                                      
000004ac  ti_sysbios_family_arm_m3_Hwi_priGroup__C                                  
20000000  ti_sysbios_family_arm_m3_Hwi_ramVectors                                   
00000000  ti_sysbios_family_arm_m3_Hwi_resetVectors                                 
1001c219  ti_sysbios_family_arm_m3_Hwi_restoreFxn__E                                
1001ca57  ti_sysbios_family_arm_m3_Hwi_return                                       
0000feef  ti_sysbios_family_arm_m3_Hwi_setFunc__E                                   
1001be85  ti_sysbios_family_arm_m3_Hwi_setPriority__E                               
1001c203  ti_sysbios_family_arm_m3_Hwi_startup__E                                   
1001c00d  ti_sysbios_family_arm_m3_Hwi_switchFromBootStack__E                       
1001c265  ti_sysbios_family_arm_m3_TaskSupport_Module__startupDone__S               
1001c96d  ti_sysbios_family_arm_m3_TaskSupport_buildTaskStack                       
1001c161  ti_sysbios_family_arm_m3_TaskSupport_getStackAlignment__E                 
1001ca59  ti_sysbios_family_arm_m3_TaskSupport_glue                                 
000004b0  ti_sysbios_family_arm_m3_TaskSupport_stackAlignment__C                    
1001b49d  ti_sysbios_family_arm_m3_TaskSupport_start__E                             
1001ca69  ti_sysbios_family_arm_m3_TaskSupport_swap__E                              
1001ca21  ti_sysbios_family_xxx_Hwi_switchAndRunFunc                                
1001bbe9  ti_sysbios_gates_GateHwi_Handle__label__S                                 
1001b463  ti_sysbios_gates_GateHwi_Instance_init__E                                 
0000021c  ti_sysbios_gates_GateHwi_Module__FXNS__C                                  
00000508  ti_sysbios_gates_GateHwi_Module__id__C                                    
20000f20  ti_sysbios_gates_GateHwi_Module__root__V                                  
000002f0  ti_sysbios_gates_GateHwi_Object__DESC__C                                  
00000430  ti_sysbios_gates_GateHwi_Object__PARAMS__C                                
1001ba95  ti_sysbios_gates_GateHwi_Object__create__S                                
1001bc09  ti_sysbios_gates_GateHwi_Object__delete__S                                
1001c16d  ti_sysbios_gates_GateHwi_enter__E                                         
1001c21f  ti_sysbios_gates_GateHwi_leave__E                                         
1001c269  ti_sysbios_gates_GateHwi_query__E                                         
1001bc29  ti_sysbios_gates_GateMutex_Handle__label__S                               
000005cc  ti_sysbios_gates_GateMutex_Instance_State_sem__O                          
1001c075  ti_sysbios_gates_GateMutex_Instance_finalize__E                           
1001bea1  ti_sysbios_gates_GateMutex_Instance_init__E                               
00000240  ti_sysbios_gates_GateMutex_Module__FXNS__C                                
0000050a  ti_sysbios_gates_GateMutex_Module__id__C                                  
20000f28  ti_sysbios_gates_GateMutex_Module__root__V                                
00000310  ti_sysbios_gates_GateMutex_Object__DESC__C                                
00000448  ti_sysbios_gates_GateMutex_Object__PARAMS__C                              
1001b649  ti_sysbios_gates_GateMutex_Object__create__S                              
1001bab9  ti_sysbios_gates_GateMutex_Object__delete__S                              
1001bc49  ti_sysbios_gates_GateMutex_Object__destruct__S                            
20000b78  ti_sysbios_gates_GateMutex_Object__table__V                               
1001c179  ti_sysbios_gates_GateMutex_Params__init__S                                
1001b7ed  ti_sysbios_gates_GateMutex_construct                                      
1001b679  ti_sysbios_gates_GateMutex_create                                         
1001c26d  ti_sysbios_gates_GateMutex_delete                                         
1001c271  ti_sysbios_gates_GateMutex_destruct                                       
1001b6a9  ti_sysbios_gates_GateMutex_enter__E                                       
1001bf9d  ti_sysbios_gates_GateMutex_leave__E                                       
1001c275  ti_sysbios_gates_GateMutex_query__E                                       
1001c279  ti_sysbios_hal_Hwi_HwiProxy_Module__startupDone__S                        
UNDEFED   ti_sysbios_hal_Hwi_HwiProxy_Module__startupDone__S__mangled__             
1001c085  ti_sysbios_hal_Hwi_HwiProxy_Object__create__S                             
1001bba9  ti_sysbios_hal_Hwi_HwiProxy_Object__delete__S                             
UNDEFED   ti_sysbios_hal_Hwi_HwiProxy_Object__delete__S__mangled__                  
1001c13d  ti_sysbios_hal_Hwi_HwiProxy_Params__init__S                               
UNDEFED   ti_sysbios_hal_Hwi_HwiProxy_Params__init__S__mangled__                    
1001be49  ti_sysbios_hal_Hwi_HwiProxy_create                                        
1001c27d  ti_sysbios_hal_Hwi_HwiProxy_delete                                        
1001c281  ti_sysbios_hal_Hwi_HwiProxy_disableInterrupt__E                           
UNDEFED   ti_sysbios_hal_Hwi_HwiProxy_disableInterrupt__E__mangled__                
1001c285  ti_sysbios_hal_Hwi_HwiProxy_enableInterrupt__E                            
UNDEFED   ti_sysbios_hal_Hwi_HwiProxy_enableInterrupt__E__mangled__                 
1001c289  ti_sysbios_hal_Hwi_HwiProxy_getStackInfo__E                               
UNDEFED   ti_sysbios_hal_Hwi_HwiProxy_getStackInfo__E__mangled__                    
0000fc4d  ti_sysbios_hal_Hwi_HwiProxy_post__E                                       
1001c28d  ti_sysbios_hal_Hwi_HwiProxy_startup__E                                    
UNDEFED   ti_sysbios_hal_Hwi_HwiProxy_startup__E__mangled__                         
1001c291  ti_sysbios_hal_Hwi_HwiProxy_switchFromBootStack__E                        
UNDEFED   ti_sysbios_hal_Hwi_HwiProxy_switchFromBootStack__E__mangled__             
1001c1f1  ti_sysbios_hal_Hwi_Instance_finalize__E                                   
1001b9f9  ti_sysbios_hal_Hwi_Instance_init__E                                       
20000f30  ti_sysbios_hal_Hwi_Module__root__V                                        
1001c021  ti_sysbios_hal_Hwi_Module_startup__E                                      
00000330  ti_sysbios_hal_Hwi_Object__DESC__C                                        
000001a0  ti_sysbios_hal_Hwi_Object__PARAMS__C                                      
1001bc69  ti_sysbios_hal_Hwi_Object__delete__S                                      
0000fdd9  ti_sysbios_hal_Hwi_Params__init__S                                        
1001ab79  ti_sysbios_hal_Hwi_create                                                 
1001c295  ti_sysbios_hal_Hwi_delete                                                 
1001c281  ti_sysbios_hal_Hwi_disableInterrupt__E                                    
UNDEFED   ti_sysbios_hal_Hwi_disableInterrupt__E                                    
1001c285  ti_sysbios_hal_Hwi_enableInterrupt__E                                     
UNDEFED   ti_sysbios_hal_Hwi_enableInterrupt__E                                     
1001c289  ti_sysbios_hal_Hwi_getStackInfo__E                                        
UNDEFED   ti_sysbios_hal_Hwi_getStackInfo__E                                        
1001b819  ti_sysbios_hal_Hwi_initStack                                              
0000fc4d  ti_sysbios_hal_Hwi_post__E                                                
1001c28d  ti_sysbios_hal_Hwi_startup__E                                             
UNDEFED   ti_sysbios_hal_Hwi_startup__E                                             
1001c299  ti_sysbios_hal_Hwi_switchFromBootStack__E                                 
UNDEFED   ti_sysbios_hal_Hwi_switchFromBootStack__E                                 
000004b4  ti_sysbios_heaps_HeapMem_E_memory__C                                      
1001bc89  ti_sysbios_heaps_HeapMem_Handle__label__S                                 
20000fd0  ti_sysbios_heaps_HeapMem_Instance_State_0_buf__A                          
1001b4d5  ti_sysbios_heaps_HeapMem_Instance_init__E                                 
1001bc29  ti_sysbios_heaps_HeapMem_Module_GateProxy_Handle__label__S                
UNDEFED   ti_sysbios_heaps_HeapMem_Module_GateProxy_Handle__label__S__mangled__     
1001bab9  ti_sysbios_heaps_HeapMem_Module_GateProxy_Object__delete__S               
UNDEFED   ti_sysbios_heaps_HeapMem_Module_GateProxy_Object__delete__S__mangled__    
1001c179  ti_sysbios_heaps_HeapMem_Module_GateProxy_Params__init__S                 
UNDEFED   ti_sysbios_heaps_HeapMem_Module_GateProxy_Params__init__S__mangled__      
1001c29d  ti_sysbios_heaps_HeapMem_Module_GateProxy_enter__E                        
1001c2a1  ti_sysbios_heaps_HeapMem_Module_GateProxy_leave__E                        
1001c275  ti_sysbios_heaps_HeapMem_Module_GateProxy_query__E                        
UNDEFED   ti_sysbios_heaps_HeapMem_Module_GateProxy_query__E__mangled__             
000001cc  ti_sysbios_heaps_HeapMem_Module__FXNS__C                                  
000004b8  ti_sysbios_heaps_HeapMem_Module__gateObj__C                               
0000050c  ti_sysbios_heaps_HeapMem_Module__id__C                                    
20000f38  ti_sysbios_heaps_HeapMem_Module__root__V                                  
00000350  ti_sysbios_heaps_HeapMem_Object__DESC__C                                  
00000264  ti_sysbios_heaps_HeapMem_Object__PARAMS__C                                
000004bc  ti_sysbios_heaps_HeapMem_Object__count__C                                 
1001b845  ti_sysbios_heaps_HeapMem_Object__create__S                                
1001bca9  ti_sysbios_heaps_HeapMem_Object__delete__S                                
1001b871  ti_sysbios_heaps_HeapMem_Object__get__S                                   
000004c0  ti_sysbios_heaps_HeapMem_Object__table__C                                 
20000d64  ti_sysbios_heaps_HeapMem_Object__table__V                                 
1001a199  ti_sysbios_heaps_HeapMem_alloc__E                                         
1001a795  ti_sysbios_heaps_HeapMem_free__E                                          
1001b209  ti_sysbios_heaps_HeapMem_getStats__E                                      
1001b545  ti_sysbios_heaps_HeapMem_init__I                                          
1001c2a5  ti_sysbios_heaps_HeapMem_isBlocking__E                                    
000004c4  ti_sysbios_heaps_HeapMem_reqAlign__C                                      
1001c105  ti_sysbios_heaps_HeapMem_restore__E                                       
1001bfcd  ti_sysbios_knl_Clock_Instance_finalize__E                                 
1001b50d  ti_sysbios_knl_Clock_Instance_init__E                                     
000005d0  ti_sysbios_knl_Clock_Module_State_clockQ__O                               
20000f40  ti_sysbios_knl_Clock_Module__root__V                                      
20000178  ti_sysbios_knl_Clock_Module__state__V                                     
1001bcc9  ti_sysbios_knl_Clock_Module_startup__E                                    
00000370  ti_sysbios_knl_Clock_Object__DESC__C                                      
00000288  ti_sysbios_knl_Clock_Object__PARAMS__C                                    
1001badd  ti_sysbios_knl_Clock_Object__delete__S                                    
1001bce9  ti_sysbios_knl_Clock_Object__destruct__S                                  
20000c98  ti_sysbios_knl_Clock_Object__table__V                                     
1001c185  ti_sysbios_knl_Clock_Params__init__S                                      
1001c2a9  ti_sysbios_knl_Clock_TimerProxy_Module__startupDone__S                    
UNDEFED   ti_sysbios_knl_Clock_TimerProxy_Module__startupDone__S__mangled__         
1001c095  ti_sysbios_knl_Clock_TimerProxy_getCurrentTick__E                         
1001c2ad  ti_sysbios_knl_Clock_TimerProxy_getExpiredTicks__E                        
1001c0a5  ti_sysbios_knl_Clock_TimerProxy_getMaxTicks__E                            
1001c2b1  ti_sysbios_knl_Clock_TimerProxy_getPeriod__E                              
1001c0b5  ti_sysbios_knl_Clock_TimerProxy_setNextTick__E                            
1001b795  ti_sysbios_knl_Clock_TimerProxy_startup__E                                
UNDEFED   ti_sysbios_knl_Clock_TimerProxy_startup__E__mangled__                     
1001ba21  ti_sysbios_knl_Clock_addI__E                                              
1001b579  ti_sysbios_knl_Clock_construct                                            
1001b3ed  ti_sysbios_knl_Clock_create                                               
1001c2b5  ti_sysbios_knl_Clock_delete                                               
1001c2b9  ti_sysbios_knl_Clock_destruct                                             
0000f9d5  ti_sysbios_knl_Clock_doTick__I                                            
0000e165  ti_sysbios_knl_Clock_getTicksUntilInterrupt__E                            
1001b6d9  ti_sysbios_knl_Clock_getTicks__E                                          
1001c191  ti_sysbios_knl_Clock_getTimerHandle__E                                    
0000ff05  ti_sysbios_knl_Clock_isActive__E                                          
1001be67  ti_sysbios_knl_Clock_logTick__E                                           
1001c2bd  ti_sysbios_knl_Clock_removeI__E                                           
1001bebd  ti_sysbios_knl_Clock_scheduleNextTick__E                                  
000004c8  ti_sysbios_knl_Clock_serviceMargin__C                                     
0000ff09  ti_sysbios_knl_Clock_setPeriod__E                                         
1001c2c1  ti_sysbios_knl_Clock_setTimeout__E                                        
1001a719  ti_sysbios_knl_Clock_startI__E                                            
1001bfe3  ti_sysbios_knl_Clock_start__E                                             
0000ec05  ti_sysbios_knl_Clock_stop__E                                              
00000510  ti_sysbios_knl_Clock_tickMode__C                                          
000106ac  ti_sysbios_knl_Clock_tickPeriod__C                                        
000106b0  ti_sysbios_knl_Clock_triggerClock__C                                      
00008213  ti_sysbios_knl_Clock_triggerFunc__I                                       
1001a80d  ti_sysbios_knl_Clock_walkQueueDynamic__E                                  
000083dd  ti_sysbios_knl_Clock_workFuncDynamic__E                                   
1001a885  ti_sysbios_knl_Clock_workFunc__E                                          
000106b4  ti_sysbios_knl_Idle_funcList__A                                           
00000478  ti_sysbios_knl_Idle_funcList__C                                           
1001c20b  ti_sysbios_knl_Idle_loop__E                                               
1001bd09  ti_sysbios_knl_Idle_run__E                                                
000005d4  ti_sysbios_knl_Mailbox_Instance_State_dataQue__O                          
000005d8  ti_sysbios_knl_Mailbox_Instance_State_dataSem__O                          
000005dc  ti_sysbios_knl_Mailbox_Instance_State_freeQue__O                          
000005e0  ti_sysbios_knl_Mailbox_Instance_State_freeSem__O                          
1001a9dd  ti_sysbios_knl_Mailbox_Instance_finalize__E                               
1001a001  ti_sysbios_knl_Mailbox_Instance_init__E                                   
20000f48  ti_sysbios_knl_Mailbox_Module__root__V                                    
1001b251  ti_sysbios_knl_Mailbox_Module_startup__E                                  
00000390  ti_sysbios_knl_Mailbox_Object__DESC__C                                    
0000013c  ti_sysbios_knl_Mailbox_Object__PARAMS__C                                  
000004cc  ti_sysbios_knl_Mailbox_Object__count__C                                   
1001bd29  ti_sysbios_knl_Mailbox_Object__delete__S                                  
1001bed9  ti_sysbios_knl_Mailbox_Object__destruct__S                                
1001b89d  ti_sysbios_knl_Mailbox_Object__get__S                                     
000004d0  ti_sysbios_knl_Mailbox_Object__table__C                                   
1001c19d  ti_sysbios_knl_Mailbox_Params__init__S                                    
1001af81  ti_sysbios_knl_Mailbox_construct                                          
1001abdd  ti_sysbios_knl_Mailbox_create                                             
1001c2c5  ti_sysbios_knl_Mailbox_delete                                             
1001c2c9  ti_sysbios_knl_Mailbox_destruct                                           
1001a8fd  ti_sysbios_knl_Mailbox_pend__E                                            
1001b8c9  ti_sysbios_knl_Mailbox_postInit__I                                        
1001a591  ti_sysbios_knl_Mailbox_post__E                                            
1001c22b  ti_sysbios_knl_Queue_Instance_init__E                                     
20000f50  ti_sysbios_knl_Queue_Module__root__V                                      
000003b0  ti_sysbios_knl_Queue_Object__DESC__C                                      
00000460  ti_sysbios_knl_Queue_Object__PARAMS__C                                    
000004d4  ti_sysbios_knl_Queue_Object__count__C                                     
1001bd49  ti_sysbios_knl_Queue_Object__delete__S                                    
1001bef5  ti_sysbios_knl_Queue_Object__destruct__S                                  
1001bd69  ti_sysbios_knl_Queue_Object__get__S                                       
000004d8  ti_sysbios_knl_Queue_Object__table__C                                     
1001b8f5  ti_sysbios_knl_Queue_construct                                            
1001b921  ti_sysbios_knl_Queue_create                                               
1001c2cd  ti_sysbios_knl_Queue_delete                                               
1001c1a9  ti_sysbios_knl_Queue_dequeue__E                                           
1001c2d1  ti_sysbios_knl_Queue_destruct                                             
1001c231  ti_sysbios_knl_Queue_elemClear__E                                         
1001c113  ti_sysbios_knl_Queue_empty__E                                             
1001c1b5  ti_sysbios_knl_Queue_enqueue__E                                           
1001bf11  ti_sysbios_knl_Queue_get__E                                               
1001c2d5  ti_sysbios_knl_Queue_head__E                                              
0000ff0d  ti_sysbios_knl_Queue_insert__E                                            
1001c2d9  ti_sysbios_knl_Queue_next__E                                              
1001bf2d  ti_sysbios_knl_Queue_put__E                                               
1001c121  ti_sysbios_knl_Queue_remove__E                                            
000005e4  ti_sysbios_knl_Semaphore_Instance_State_pendQ__O                          
1001c0c5  ti_sysbios_knl_Semaphore_Instance_finalize__E                             
1001bb01  ti_sysbios_knl_Semaphore_Instance_init__E                                 
20000f58  ti_sysbios_knl_Semaphore_Module__root__V                                  
000003d0  ti_sysbios_knl_Semaphore_Object__DESC__C                                  
000002ac  ti_sysbios_knl_Semaphore_Object__PARAMS__C                                
1001bb25  ti_sysbios_knl_Semaphore_Object__delete__S                                
1001bd89  ti_sysbios_knl_Semaphore_Object__destruct__S                              
1001c1c1  ti_sysbios_knl_Semaphore_Params__init__S                                  
1001b709  ti_sysbios_knl_Semaphore_construct                                        
1001b5ad  ti_sysbios_knl_Semaphore_create                                           
1001c2dd  ti_sysbios_knl_Semaphore_delete                                           
1001c2e1  ti_sysbios_knl_Semaphore_destruct                                         
1001b94d  ti_sysbios_knl_Semaphore_pendTimeout__I                                   
1001a0cd  ti_sysbios_knl_Semaphore_pend__E                                          
1001ac41  ti_sysbios_knl_Semaphore_post__E                                          
1001bf9b  ti_sysbios_knl_Swi_Instance_finalize__E                                   
1001aca5  ti_sysbios_knl_Swi_Instance_init__E                                       
20000bb0  ti_sysbios_knl_Swi_Module_State_0_readyQ__A                               
20000f60  ti_sysbios_knl_Swi_Module__root__V                                        
200001c8  ti_sysbios_knl_Swi_Module__state__V                                       
1001c237  ti_sysbios_knl_Swi_Module_startup__E                                      
000003f0  ti_sysbios_knl_Swi_Object__DESC__C                                        
000001f4  ti_sysbios_knl_Swi_Object__PARAMS__C                                      
000004dc  ti_sysbios_knl_Swi_Object__count__C                                       
1001bda9  ti_sysbios_knl_Swi_Object__delete__S                                      
1001bf49  ti_sysbios_knl_Swi_Object__destruct__S                                    
1001b979  ti_sysbios_knl_Swi_Object__get__S                                         
000004e0  ti_sysbios_knl_Swi_Object__table__C                                       
20000be0  ti_sysbios_knl_Swi_Object__table__V                                       
1001c1cd  ti_sysbios_knl_Swi_Params__init__S                                        
1001b085  ti_sysbios_knl_Swi_construct                                              
1001ad05  ti_sysbios_knl_Swi_create                                                 
1001c2e5  ti_sysbios_knl_Swi_delete                                                 
1001c2e9  ti_sysbios_knl_Swi_destruct                                               
1001c0d5  ti_sysbios_knl_Swi_disable__E                                             
1001c0e5  ti_sysbios_knl_Swi_enabled__E                                             
0000fe4d  ti_sysbios_knl_Swi_getTrigger__E                                          
000004e4  ti_sysbios_knl_Swi_numPriorities__C                                       
0000f47d  ti_sysbios_knl_Swi_or__E                                                  
1001c2ed  ti_sysbios_knl_Swi_postInit__I                                            
1001b321  ti_sysbios_knl_Swi_post__E                                                
1001ad61  ti_sysbios_knl_Swi_restoreHwi__E                                          
1001b5e1  ti_sysbios_knl_Swi_restore__E                                             
1001b0d5  ti_sysbios_knl_Swi_runLoop__I                                             
1001afd9  ti_sysbios_knl_Swi_run__I                                                 
1001b031  ti_sysbios_knl_Swi_schedule__I                                            
1001c23d  ti_sysbios_knl_Swi_startup__E                                             
20002018  ti_sysbios_knl_Task_Instance_State_0_stack__A                             
1001a4fd  ti_sysbios_knl_Task_Instance_finalize__E                                  
1001a25d  ti_sysbios_knl_Task_Instance_init__E                                      
20000fcc  ti_sysbios_knl_Task_Module_State_0_idleTask__A                            
20000c10  ti_sysbios_knl_Task_Module_State_0_readyQ__A                              
000005e8  ti_sysbios_knl_Task_Module_State_inactiveQ__O                             
20000f68  ti_sysbios_knl_Task_Module__root__V                                       
20000100  ti_sysbios_knl_Task_Module__state__V                                      
1001adbd  ti_sysbios_knl_Task_Module_startup__E                                     
00000410  ti_sysbios_knl_Task_Object__DESC__C                                       
00000100  ti_sysbios_knl_Task_Object__PARAMS__C                                     
000004e8  ti_sysbios_knl_Task_Object__count__C                                      
1001bdc9  ti_sysbios_knl_Task_Object__delete__S                                     
1001bf65  ti_sysbios_knl_Task_Object__destruct__S                                   
1001bde9  ti_sysbios_knl_Task_Object__get__S                                        
000004ec  ti_sysbios_knl_Task_Object__table__C                                      
20000ae0  ti_sysbios_knl_Task_Object__table__V                                      
1001c1d9  ti_sysbios_knl_Task_Params__init__S                                       
1001c2f1  ti_sysbios_knl_Task_SupportProxy_Module__startupDone__S                   
UNDEFED   ti_sysbios_knl_Task_SupportProxy_Module__startupDone__S__mangled__        
1001c2f5  ti_sysbios_knl_Task_SupportProxy_getStackAlignment__E                     
UNDEFED   ti_sysbios_knl_Task_SupportProxy_getStackAlignment__E__mangled__          
1001c2f9  ti_sysbios_knl_Task_SupportProxy_start__E                                 
UNDEFED   ti_sysbios_knl_Task_SupportProxy_start__E__mangled__                      
1001c2fd  ti_sysbios_knl_Task_SupportProxy_swap__E                                  
UNDEFED   ti_sysbios_knl_Task_SupportProxy_swap__E__mangled__                       
000004f0  ti_sysbios_knl_Task_allBlockedFunc__C                                     
1001b365  ti_sysbios_knl_Task_allBlockedFunction__I                                 
1001b615  ti_sysbios_knl_Task_blockI__E                                             
1001b125  ti_sysbios_knl_Task_construct                                             
1001ae19  ti_sysbios_knl_Task_create                                                
000004f4  ti_sysbios_knl_Task_defaultStackHeap__C                                   
000004f8  ti_sysbios_knl_Task_defaultStackSize__C                                   
1001c301  ti_sysbios_knl_Task_delete                                                
1001c305  ti_sysbios_knl_Task_destruct                                              
1001c0f5  ti_sysbios_knl_Task_disable__E                                            
1001c243  ti_sysbios_knl_Task_enable__E                                             
1001be09  ti_sysbios_knl_Task_enter__I                                              
1001b429  ti_sysbios_knl_Task_exit__E                                               
0000050e  ti_sysbios_knl_Task_initStackFlag__C                                      
000004fc  ti_sysbios_knl_Task_numConstructedTasks__C                                
1001a615  ti_sysbios_knl_Task_postInit__I                                           
1001b739  ti_sysbios_knl_Task_processVitalTaskFlag__I                               
1001be29  ti_sysbios_knl_Task_restoreHwi__E                                         
1001ba49  ti_sysbios_knl_Task_restore__E                                            
1001b175  ti_sysbios_knl_Task_schedule__I                                           
1001c1e5  ti_sysbios_knl_Task_self__E                                               
00007dcd  ti_sysbios_knl_Task_setPri__E                                             
1001bf81  ti_sysbios_knl_Task_sleepTimeout__I                                       
1001a96d  ti_sysbios_knl_Task_sleep__E                                              
1001ae75  ti_sysbios_knl_Task_startCore__E                                          
1001c309  ti_sysbios_knl_Task_startup__E                                            
1001ca71  ti_sysbios_knl_Task_swapReturn                                            
1001b9a5  ti_sysbios_knl_Task_unblockI__E                                           
1001bfb5  ti_sysbios_knl_Task_unblock__E                                            
1001b3a9  ti_sysbios_knl_Task_yield__E                                              
00000590  ti_sysbios_rom_ROM_AONRTCChannelEnable                                    
00000594  ti_sysbios_rom_ROM_AONRTCCompareValueSet                                  
00000598  ti_sysbios_rom_ROM_AONRTCCurrentCompareValueGet                           
0000059c  ti_sysbios_rom_ROM_AONRTCEventClear                                       
000005a0  ti_sysbios_rom_ROM_ti_sysbios_family_arm_cc26xx_Timer_getCount64__E       
000005a4  ti_sysbios_rom_ROM_ti_sysbios_family_arm_cc26xx_Timer_getCurrentTick__E   
000005a8  ti_sysbios_rom_ROM_ti_sysbios_family_arm_cc26xx_Timer_getMaxTicks__E      
000005ac  ti_sysbios_rom_ROM_ti_sysbios_family_arm_cc26xx_Timer_initDevice__I       
000005b0  ti_sysbios_rom_ROM_ti_sysbios_family_arm_cc26xx_Timer_setNextTick__E      
000005b4  ti_sysbios_rom_ROM_ti_sysbios_family_arm_cc26xx_Timer_setThreshold__I     
000005b8  ti_sysbios_rom_ROM_ti_sysbios_family_arm_cc26xx_Timer_start__E            
000005bc  ti_sysbios_rom_ROM_ti_sysbios_family_arm_cc26xx_TimestampProvider_get32__E
000005c0  ti_sysbios_rom_ROM_xdc_runtime_Startup_getState__I                        
000005c4  ti_sysbios_rom_ROM_xdc_runtime_System_SupportProxy_abort__E               
000005c8  ti_sysbios_rom_ROM_xdc_runtime_System_SupportProxy_exit__E                
0000850b  ti_sysbios_rom_cortexm_cc26xx_CC26xx_badRomRevision__E                    
0000f495  ti_sysbios_rom_cortexm_cc26xx_CC26xx_checkRevision__E                     
1001ca9b  ti_sysbios_rom_cortexm_cc26xx_CC26xx_getRevision__E                       
20002fd4  trngCC26XXObjects                                                         
000105f4  trngDriverTable                                                           
0001026c  txPowerTable                                                              
00010684  txPwrTbl                                                                  
0001067c  udmaHWAttrs                                                               
20002d88  udmaObjects                                                               
20000c40  user0Cfg                                                                  
00009b2d  utilExtractUuid16                                                         
00000524  xdc_runtime_Assert_E_assertFailed__C                                      
1001c5a9  xdc_runtime_Assert_raise__I                                               
1001c6ed  xdc_runtime_Core_assignLabel__I                                           
1001c5f1  xdc_runtime_Core_assignParams__I                                          
1001c639  xdc_runtime_Core_constructObject__I                                       
1001c405  xdc_runtime_Core_createObject__I                                          
1001c4f9  xdc_runtime_Core_deleteObject__I                                          
1001c7a1  xdc_runtime_Core_destructObject__I                                        
00000528  xdc_runtime_Error_E_memory__C                                             
1001c7b9  xdc_runtime_Error_check__E                                                
1001c841  xdc_runtime_Error_init__E                                                 
0000052c  xdc_runtime_Error_policyFxn__C                                            
1001c487  xdc_runtime_Error_policySpin__E                                           
0000058c  xdc_runtime_Error_policy__C                                               
1001c769  xdc_runtime_Error_raiseX__E                                               
1001c885  xdc_runtime_Gate_enterSystem__E                                           
1001c879  xdc_runtime_Gate_leaveSystem__E                                           
00000530  xdc_runtime_IGateProvider_Interface__BASE__C                              
00000534  xdc_runtime_IHeap_Interface__BASE__C                                      
00000538  xdc_runtime_IModule_Interface__BASE__C                                    
UNDEFED   xdc_runtime_Main_Module_GateProxy_Handle__label__S                        
UNDEFED   xdc_runtime_Main_Module_GateProxy_Object__delete__S                       
UNDEFED   xdc_runtime_Main_Module_GateProxy_query__E                                
0000053c  xdc_runtime_Main_Module__diagsEnabled__C                                  
00000540  xdc_runtime_Main_Module__diagsIncluded__C                                 
00000544  xdc_runtime_Main_Module__diagsMask__C                                     
00000584  xdc_runtime_Main_Module__id__C                                            
1001bc89  xdc_runtime_Memory_HeapProxy_Handle__label__S                             
UNDEFED   xdc_runtime_Memory_HeapProxy_Handle__label__S__mangled__                  
1001bca9  xdc_runtime_Memory_HeapProxy_Object__delete__S                            
UNDEFED   xdc_runtime_Memory_HeapProxy_Object__delete__S__mangled__                 
1001c889  xdc_runtime_Memory_HeapProxy_alloc__E                                     
1001c88d  xdc_runtime_Memory_HeapProxy_free__E                                      
00000586  xdc_runtime_Memory_Module__id__C                                          
20000200  xdc_runtime_Memory_Module__state__V                                       
1001c489  xdc_runtime_Memory_alloc__E                                               
1001c84d  xdc_runtime_Memory_calloc__E                                              
00000548  xdc_runtime_Memory_defaultHeapInstance__C                                 
1001c801  xdc_runtime_Memory_free__E                                                
1001c859  xdc_runtime_Memory_getMaxDefaultTypeAlign__E                              
1001c785  xdc_runtime_Memory_valloc__E                                              
200001f0  xdc_runtime_Startup_Module__state__V                                      
00000001  xdc_runtime_Startup__EXECFXN__C                                           
00000001  xdc_runtime_Startup__RESETFXN__C                                          
0000054c  xdc_runtime_Startup_execImpl__C                                           
1001c559  xdc_runtime_Startup_exec__E                                               
0000fb01  xdc_runtime_Startup_exec__I                                               
00010600  xdc_runtime_Startup_firstFxns__A                                          
00000514  xdc_runtime_Startup_firstFxns__C                                          
0000af6d  xdc_runtime_Startup_getState__I                                           
0000051c  xdc_runtime_Startup_lastFxns__C                                           
00000550  xdc_runtime_Startup_maxPasses__C                                          
0000fead  xdc_runtime_Startup_reset__I                                              
0000feb9  xdc_runtime_Startup_rtsDone__E                                            
000103b2  xdc_runtime_Startup_sfxnRts__A                                            
00000554  xdc_runtime_Startup_sfxnRts__C                                            
000102b8  xdc_runtime_Startup_sfxnTab__A                                            
00000558  xdc_runtime_Startup_sfxnTab__C                                            
0000055c  xdc_runtime_Startup_startModsFxn__C                                       
1001c30d  xdc_runtime_Startup_startMods__I                                          
00000560  xdc_runtime_SysCallback_abortFxn__C                                       
1001c811  xdc_runtime_SysCallback_abort__E                                          
00008d47  xdc_runtime_SysCallback_defaultAbort                                      
000091b3  xdc_runtime_SysCallback_defaultExit                                       
00000564  xdc_runtime_SysCallback_exitFxn__C                                        
1001c821  xdc_runtime_SysCallback_exit__E                                           
1001bbe9  xdc_runtime_System_Module_GateProxy_Handle__label__S                      
UNDEFED   xdc_runtime_System_Module_GateProxy_Handle__label__S__mangled__           
1001bc09  xdc_runtime_System_Module_GateProxy_Object__delete__S                     
UNDEFED   xdc_runtime_System_Module_GateProxy_Object__delete__S__mangled__          
1001c891  xdc_runtime_System_Module_GateProxy_enter__E                              
1001c895  xdc_runtime_System_Module_GateProxy_leave__E                              
1001c269  xdc_runtime_System_Module_GateProxy_query__E                              
UNDEFED   xdc_runtime_System_Module_GateProxy_query__E__mangled__                   
200001f8  xdc_runtime_System_Module__state__V                                       
1001c87f  xdc_runtime_System_Module_startup__E                                      
UNDEFED   xdc_runtime_System_SupportProxy_abort__E                                  
UNDEFED   xdc_runtime_System_SupportProxy_exit__E                                   
00000568  xdc_runtime_System_abortFxn__C                                            
1001c899  xdc_runtime_System_abortSpin__E                                           
0000b635  xdc_runtime_System_abortStd__E                                            
1001c749  xdc_runtime_System_abort__E                                               
1001c681  xdc_runtime_System_atexit__E                                              
0000056c  xdc_runtime_System_exitFxn__C                                             
1001c89b  xdc_runtime_System_exitSpin__E                                            
0000b63d  xdc_runtime_System_exitStd__E                                             
1001c7d1  xdc_runtime_System_exit__E                                                
00000570  xdc_runtime_System_maxAtexitHandlers__C                                   
1001c6b9  xdc_runtime_System_processAtExit__E                                       
00000588  xdc_runtime_Text_charCnt__C                                               
000103b1  xdc_runtime_Text_charTab__A                                               
00000574  xdc_runtime_Text_charTab__C                                               
1001c71d  xdc_runtime_Text_cordText__E                                              
0000058a  xdc_runtime_Text_isLoaded__C                                              
00000578  xdc_runtime_Text_nameEmpty__C                                             
0000057c  xdc_runtime_Text_nameStatic__C                                            
00000580  xdc_runtime_Text_nameUnknown__C                                           
1001c7e9  xdc_runtime_Text_ropeText__E                                              
1001c831  xdc_runtime_Timestamp_SupportProxy_get32__E                               
0000fcff  xdc_runtime_Timestamp_SupportProxy_get32__E__mangled__                    
1001b9d1  xdc_runtime_Timestamp_SupportProxy_get64__E                               
UNDEFED   xdc_runtime_Timestamp_SupportProxy_get64__E__mangled__                    
1001c12f  xdc_runtime_Timestamp_SupportProxy_getFreq__E                             
UNDEFED   xdc_runtime_Timestamp_SupportProxy_getFreq__E__mangled__                  
1001c831  xdc_runtime_Timestamp_get32__E                                            
UNDEFED   xdc_runtime_Timestamp_get32__E                                            
1001b9d1  xdc_runtime_Timestamp_get64__E                                            
UNDEFED   xdc_runtime_Timestamp_get64__E                                            
1001c12f  xdc_runtime_Timestamp_getFreq__E                                          
UNDEFED   xdc_runtime_Timestamp_getFreq__E                                          
10015d19  zADD                                                                      
10015eb5  zADD32                                                                    
10015de9  zMACC32                                                                   
10015f0d  zMULT32                                                                   
10015bcd  zSET                                                                      
10015d5d  zSUB                                                                      
10015e69  zSUB32                                                                    


GLOBAL SYMBOLS: SORTED BY Symbol Address 

address   name                                                                      
-------   ----                                                                      
00000000  __ASM__                                                                   
00000000  ti_sysbios_family_arm_m3_Hwi_resetVectors                                 
00000001  xdc_runtime_Startup__EXECFXN__C                                           
00000001  xdc_runtime_Startup__RESETFXN__C                                          
0000003d  Barometer_setParameter                                                    
00000085  __ISA__                                                                   
00000097  __PLAT__                                                                  
000000be  __TARG__                                                                  
000000e3  __TRDR__                                                                  
00000100  ti_sysbios_knl_Task_Object__PARAMS__C                                     
0000013c  ti_sysbios_knl_Mailbox_Object__PARAMS__C                                  
00000170  ti_sysbios_family_arm_m3_Hwi_Object__PARAMS__C                            
000001a0  ti_sysbios_hal_Hwi_Object__PARAMS__C                                      
000001cc  ti_sysbios_heaps_HeapMem_Module__FXNS__C                                  
000001f4  ti_sysbios_knl_Swi_Object__PARAMS__C                                      
0000021c  ti_sysbios_gates_GateHwi_Module__FXNS__C                                  
00000240  ti_sysbios_gates_GateMutex_Module__FXNS__C                                
00000264  ti_sysbios_heaps_HeapMem_Object__PARAMS__C                                
00000288  ti_sysbios_knl_Clock_Object__PARAMS__C                                    
000002ac  ti_sysbios_knl_Semaphore_Object__PARAMS__C                                
000002d0  ti_sysbios_family_arm_m3_Hwi_Object__DESC__C                              
000002f0  ti_sysbios_gates_GateHwi_Object__DESC__C                                  
00000310  ti_sysbios_gates_GateMutex_Object__DESC__C                                
00000330  ti_sysbios_hal_Hwi_Object__DESC__C                                        
00000350  ti_sysbios_heaps_HeapMem_Object__DESC__C                                  
00000370  ti_sysbios_knl_Clock_Object__DESC__C                                      
00000390  ti_sysbios_knl_Mailbox_Object__DESC__C                                    
000003b0  ti_sysbios_knl_Queue_Object__DESC__C                                      
000003d0  ti_sysbios_knl_Semaphore_Object__DESC__C                                  
000003f0  ti_sysbios_knl_Swi_Object__DESC__C                                        
00000400  __STACK_SIZE                                                              
00000410  ti_sysbios_knl_Task_Object__DESC__C                                       
00000430  ti_sysbios_gates_GateHwi_Object__PARAMS__C                                
00000448  ti_sysbios_gates_GateMutex_Object__PARAMS__C                              
00000460  ti_sysbios_knl_Queue_Object__PARAMS__C                                    
00000478  ti_sysbios_knl_Idle_funcList__C                                           
00000481  List_head                                                                 
00000484  ti_sysbios_family_arm_cc26xx_Timer_startupNeeded__C                       
00000488  ti_sysbios_family_arm_m3_Hwi_E_alreadyDefined__C                          
0000048c  ti_sysbios_family_arm_m3_Hwi_E_hwiLimitExceeded__C                        
00000490  ti_sysbios_family_arm_m3_Hwi_NUM_INTERRUPTS__C                            
00000494  ti_sysbios_family_arm_m3_Hwi_Object__count__C                             
00000498  ti_sysbios_family_arm_m3_Hwi_Object__table__C                             
0000049c  ti_sysbios_family_arm_m3_Hwi_ccr__C                                       
000004a0  ti_sysbios_family_arm_m3_Hwi_excHandlerFunc__C                            
000004a4  ti_sysbios_family_arm_m3_Hwi_nullIsrFunc__C                               
000004a8  ti_sysbios_family_arm_m3_Hwi_numSparseInterrupts__C                       
000004ac  ti_sysbios_family_arm_m3_Hwi_priGroup__C                                  
000004b0  ti_sysbios_family_arm_m3_TaskSupport_stackAlignment__C                    
000004b4  ti_sysbios_heaps_HeapMem_E_memory__C                                      
000004b8  ti_sysbios_heaps_HeapMem_Module__gateObj__C                               
000004bc  ti_sysbios_heaps_HeapMem_Object__count__C                                 
000004c0  ti_sysbios_heaps_HeapMem_Object__table__C                                 
000004c4  ti_sysbios_heaps_HeapMem_reqAlign__C                                      
000004c8  ti_sysbios_knl_Clock_serviceMargin__C                                     
000004cc  ti_sysbios_knl_Mailbox_Object__count__C                                   
000004d0  ti_sysbios_knl_Mailbox_Object__table__C                                   
000004d4  ti_sysbios_knl_Queue_Object__count__C                                     
000004d8  ti_sysbios_knl_Queue_Object__table__C                                     
000004dc  ti_sysbios_knl_Swi_Object__count__C                                       
000004e0  ti_sysbios_knl_Swi_Object__table__C                                       
000004e4  ti_sysbios_knl_Swi_numPriorities__C                                       
000004e8  ti_sysbios_knl_Task_Object__count__C                                      
000004ec  ti_sysbios_knl_Task_Object__table__C                                      
000004f0  ti_sysbios_knl_Task_allBlockedFunc__C                                     
000004f4  ti_sysbios_knl_Task_defaultStackHeap__C                                   
000004f8  ti_sysbios_knl_Task_defaultStackSize__C                                   
000004fc  ti_sysbios_knl_Task_numConstructedTasks__C                                
00000501  NOROM_RFCAdi3VcoLdoVoltageMode                                            
00000502  ti_sysbios_family_arm_cc26xx_Timer_Module__id__C                          
00000504  ti_sysbios_family_arm_cc26xx_TimestampProvider_useClockTimer__C           
00000506  ti_sysbios_family_arm_m3_Hwi_Module__id__C                                
00000508  ti_sysbios_gates_GateHwi_Module__id__C                                    
0000050a  ti_sysbios_gates_GateMutex_Module__id__C                                  
0000050c  ti_sysbios_heaps_HeapMem_Module__id__C                                    
0000050e  ti_sysbios_knl_Task_initStackFlag__C                                      
00000510  ti_sysbios_knl_Clock_tickMode__C                                          
00000514  xdc_runtime_Startup_firstFxns__C                                          
0000051c  xdc_runtime_Startup_lastFxns__C                                           
00000524  xdc_runtime_Assert_E_assertFailed__C                                      
00000528  xdc_runtime_Error_E_memory__C                                             
0000052c  xdc_runtime_Error_policyFxn__C                                            
00000530  xdc_runtime_IGateProvider_Interface__BASE__C                              
00000534  xdc_runtime_IHeap_Interface__BASE__C                                      
00000538  xdc_runtime_IModule_Interface__BASE__C                                    
0000053c  xdc_runtime_Main_Module__diagsEnabled__C                                  
00000540  xdc_runtime_Main_Module__diagsIncluded__C                                 
00000544  xdc_runtime_Main_Module__diagsMask__C                                     
00000548  xdc_runtime_Memory_defaultHeapInstance__C                                 
0000054c  xdc_runtime_Startup_execImpl__C                                           
00000550  xdc_runtime_Startup_maxPasses__C                                          
00000554  xdc_runtime_Startup_sfxnRts__C                                            
00000558  xdc_runtime_Startup_sfxnTab__C                                            
0000055c  xdc_runtime_Startup_startModsFxn__C                                       
00000560  xdc_runtime_SysCallback_abortFxn__C                                       
00000564  xdc_runtime_SysCallback_exitFxn__C                                        
00000568  xdc_runtime_System_abortFxn__C                                            
0000056c  xdc_runtime_System_exitFxn__C                                             
00000570  xdc_runtime_System_maxAtexitHandlers__C                                   
00000574  xdc_runtime_Text_charTab__C                                               
00000578  xdc_runtime_Text_nameEmpty__C                                             
0000057c  xdc_runtime_Text_nameStatic__C                                            
00000580  xdc_runtime_Text_nameUnknown__C                                           
00000584  xdc_runtime_Main_Module__id__C                                            
00000586  xdc_runtime_Memory_Module__id__C                                          
00000588  xdc_runtime_Text_charCnt__C                                               
0000058a  xdc_runtime_Text_isLoaded__C                                              
0000058c  xdc_runtime_Error_policy__C                                               
00000590  ti_sysbios_rom_ROM_AONRTCChannelEnable                                    
00000594  ti_sysbios_rom_ROM_AONRTCCompareValueSet                                  
00000598  ti_sysbios_rom_ROM_AONRTCCurrentCompareValueGet                           
0000059c  ti_sysbios_rom_ROM_AONRTCEventClear                                       
000005a0  ti_sysbios_rom_ROM_ti_sysbios_family_arm_cc26xx_Timer_getCount64__E       
000005a4  ti_sysbios_rom_ROM_ti_sysbios_family_arm_cc26xx_Timer_getCurrentTick__E   
000005a8  ti_sysbios_rom_ROM_ti_sysbios_family_arm_cc26xx_Timer_getMaxTicks__E      
000005ac  ti_sysbios_rom_ROM_ti_sysbios_family_arm_cc26xx_Timer_initDevice__I       
000005b0  ti_sysbios_rom_ROM_ti_sysbios_family_arm_cc26xx_Timer_setNextTick__E      
000005b4  ti_sysbios_rom_ROM_ti_sysbios_family_arm_cc26xx_Timer_setThreshold__I     
000005b8  ti_sysbios_rom_ROM_ti_sysbios_family_arm_cc26xx_Timer_start__E            
000005bc  ti_sysbios_rom_ROM_ti_sysbios_family_arm_cc26xx_TimestampProvider_get32__E
000005c0  ti_sysbios_rom_ROM_xdc_runtime_Startup_getState__I                        
000005c4  ti_sysbios_rom_ROM_xdc_runtime_System_SupportProxy_abort__E               
000005c8  ti_sysbios_rom_ROM_xdc_runtime_System_SupportProxy_exit__E                
000005cc  ti_sysbios_gates_GateMutex_Instance_State_sem__O                          
000005d0  ti_sysbios_knl_Clock_Module_State_clockQ__O                               
000005d4  ti_sysbios_knl_Mailbox_Instance_State_dataQue__O                          
000005d8  ti_sysbios_knl_Mailbox_Instance_State_dataSem__O                          
000005dc  ti_sysbios_knl_Mailbox_Instance_State_freeQue__O                          
000005e0  ti_sysbios_knl_Mailbox_Instance_State_freeSem__O                          
000005e4  ti_sysbios_knl_Semaphore_Instance_State_pendQ__O                          
000005e8  ti_sysbios_knl_Task_Module_State_inactiveQ__O                             
000005ed  GAPRole_SetParameter                                                      
00001769  GAPRole_GetParameter                                                      
000019d5  RF_postCmd                                                                
00001c1d  PIN_init                                                                  
000022dd  Power_sleep                                                               
00002505  NOROM_SysCtrlSetRechargeBeforePowerDown                                   
00002709  DevInfo_SetParameter                                                      
00002901  __aeabi_uldivmod                                                          
00003029  SPICC26XXDMA_open                                                         
000031bd  SensorBmp280_convert                                                      
00003351  SensorTagMov_processSensorEvent                                           
000034dd  PowerCC26XX_doCalibrate                                                   
00003aad  SensorMpu9250_magRead                                                     
00003c05  ICall_heapMalloc                                                          
00003e99  SensorMpu9250_enableWom                                                   
00004617  NOROM_RFCRTrim                                                            
00004891  NOROM_SetupAfterColdResetWakeupFromShutDownCfg3                           
00004c11  I2CCC26XX_transfer                                                        
00004d35  I2CCC26XX_open                                                            
00004e55  Power_init                                                                
00004f71  PIN_open                                                                  
000051a1  SPICC26XXDMA_control                                                      
000053b9  SensorTmp007_test                                                         
000055bd  SPICC26XXDMA_transferCancel                                               
000056b9  __aeabi_dmul                                                              
000057b5  __aeabi_fsub                                                              
000057b9  __aeabi_fadd                                                              
000058af  ti_sysbios_BIOS_linkedWithIncorrectBootLibrary__E                         
000059a9  RF_open                                                                   
00005c71  SensorTagIO_processCharChangeEvt                                          
00005d59  NOROM_SetupAfterColdResetWakeupFromShutDownCfg2                           
00005e3d  GATTServApp_ProcessCharCfg                                                
00005f19  SensorTagMov_processCharChangeEvt                                         
000060cd  SensorBmp280_test                                                         
00006279  Power_releaseDependency                                                   
0000634d  IRTemp_setParameter                                                       
0000641d  Power_setDependency                                                       
00006759  SPICC26XXDMA_transfer                                                     
00006825  SensorTmp007_read                                                         
00006b49  Movement_setParameter                                                     
00006c0d  Humidity_setParameter                                                     
00006ccd  ICall_heapInit                                                            
00006d8d  Optic_setParameter                                                        
00006e4d  SensorTag_testExecute                                                     
00006f0d  I2CCC26XX_cancel                                                          
00006fc9  PowerCC26XX_standbyPolicy                                                 
00007141  SensorTagOpt_processCharChangeEvt                                         
000071f9  SensorTagBar_processCharChangeEvt                                         
00007615  SensorTagBuzzer_setFrequency                                              
000076bd  SensorTagTmp_processCharChangeEvt                                         
00007765  TRNGCC26XX_getNumber                                                      
000078b5  ICallPlatform_pwrRegisterNotify                                           
000079fd  NOROM_SetupTrimDevice                                                     
000079fd  ti_sysbios_family_arm_cc26xx_Boot_trimDevice                              
00007aa1  SensorTagHum_processCharChangeEvt                                         
00007c8b  ti_sysbios_BIOS_nullFunc__I                                               
00007c8d  SensorI2C_select                                                          
00007d2d  __TI_auto_init                                                            
00007dcd  ti_sysbios_knl_Task_setPri__E                                             
00007e6d  ICall_createRemoteTasks                                                   
00007f09  Io_setParameter                                                           
00007fa5  RF_pendCmd                                                                
00008041  __aeabi_memcpy                                                            
00008041  __aeabi_memcpy4                                                           
00008041  __aeabi_memcpy8                                                           
00008041  memcpy                                                                    
00008213  ti_sysbios_knl_Clock_triggerFunc__I                                       
00008215  ICallPlatform_pwrUpdActivityCounter                                       
00008345  PIN_remove                                                                
000083dd  ti_sysbios_knl_Clock_workFuncDynamic__E                                   
00008475  GATTServApp_ProcessCCCWriteReq                                            
0000850b  ti_sysbios_rom_cortexm_cc26xx_CC26xx_badRomRevision__E                    
0000850d  PIN_add                                                                   
000085a1  RF_getCurrentTime                                                         
000086c5  RF_getInfo                                                                
00008755  SensorHdc1000_test                                                        
000087e5  SensorMpu9250_reset                                                       
00008905  NOROM_OSCHF_GetStartupTime                                                
00008905  PowerCC26XX_getXoscStartupTime                                            
00008c3d  __aeabi_cdrcmple                                                          
00008d47  xdc_runtime_SysCallback_defaultAbort                                      
00008d49  SensorTagMov_init                                                         
00008e51  I2CCC26XX_close                                                           
00008ecd  SensorHdc1000_read                                                        
00008f49  SensorMpu9250_magReset                                                    
00009139  __aeabi_memclr                                                            
00009139  __aeabi_memclr4                                                           
00009139  __aeabi_memclr8                                                           
0000913b  __aeabi_memset                                                            
0000913b  __aeabi_memset4                                                           
0000913b  __aeabi_memset8                                                           
00009141  memset                                                                    
000091b3  xdc_runtime_SysCallback_defaultExit                                       
000091b5  NOROM_SetupAfterColdResetWakeupFromShutDownCfg1                           
000092a5  SPICC26XXDMA_close                                                        
0000931b  SensorOpt3001_read                                                        
00009409  GATTServApp_InitCharCfg                                                   
000094f1  PowerCC26XX_auxISR                                                        
00009565  SensorMpu9250_test                                                        
000095d9  SensorOpt3001_convert                                                     
0000981d  NOROM_ChipInfo_GetHwRevision                                              
0000988d  PINCC26XX_getConfig                                                       
000098fd  SensorI2C_open                                                            
0000996d  SensorTagIO_blinkLed                                                      
000099dd  UDMACC26XX_open                                                           
00009b2d  utilExtractUuid16                                                         
00009b9d  __aeabi_d2f                                                               
00009c0d  GAP_DeviceInit                                                            
00009c79  GAP_UpdateAdvertisingData                                                 
00009ce5  ICall_init                                                                
00009d51  NOROM_SetupGetTrimForAmpcompCtrl                                          
00009dbd  PowerCC26XX_calibrate                                                     
00009e29  SensorI2C_writeReg                                                        
00009e95  SensorMpu9250_accSetRange                                                 
00009f6d  NOROM_SetupGetTrimForAnabypassValue1                                      
00009fd5  NOROM_SysCtrl_DCDC_VoltageConditionalControl                              
0000a03d  RF_runCmd                                                                 
0000a2ad  SensorOpt3001_test                                                        
0000a315  Barometer_getParameter                                                    
0000a441  SensorTagOpt_processSensorEvent                                           
0000a4a5  Util_rescheduleClock                                                      
0000a56d  ti_sysbios_family_arm_cc26xx_Timer_start__E                               
0000a635  ExtFlash_open                                                             
0000a695  GAPBondMgr_LinkEst                                                        
0000a6f5  GAPRole_SendUpdateParam                                                   
0000a755  Humidity_getParameter                                                     
0000a815  ICall_searchServiceEntity                                                 
0000a875  IRTemp_getParameter                                                       
0000a8d5  Optic_getParameter                                                        
0000a935  PowerCC26XX_RCOSC_clockFunc                                               
0000a995  SensorTagOpt_init                                                         
0000a9f5  SensorTmp007_enable                                                       
0000aa55  Util_constructClock                                                       
0000abd5  GATTServApp_RegisterService                                               
0000ace9  Movement_getParameter                                                     
0000ad45  NOROM_OSCHF_AttemptToSwitchToXosc                                         
0000ada1  NOROM_SysCtrlAdjustRechargeAfterPowerDown                                 
0000af6d  xdc_runtime_Startup_getState__I                                           
0000afc9  SensorBmp280_read                                                         
0000b025  GAP_TerminateLinkReq                                                      
0000b07d  I2C_init                                                                  
0000b12d  PowerCC26XX_initiateCalibration                                           
0000b235  SensorUtil_convertToLe                                                    
0000b3e5  RF_getRssi                                                                
0000b439  SensorI2C_writeRead                                                       
0000b48d  SensorMpu9250_magTest                                                     
0000b4e1  TRNGCC26XX_isParamValid                                                   
0000b535  UDMACC26XX_close                                                          
0000b631  C$$EXIT                                                                   
0000b635  abort                                                                     
0000b635  xdc_runtime_System_abortStd__E                                            
0000b63d  exit                                                                      
0000b63d  xdc_runtime_System_exitStd__E                                             
0000b729  Batt_SetParameter                                                         
0000b779  GAPBondMgr_SetParameter                                                   
0000b819  NOROM_SetupSetCacheModeAccordingToCcfgSetting                             
0000b959  osal_snv_read                                                             
0000b9a9  osal_snv_write                                                            
0000ba99  GATTServApp_FindAttr                                                      
0000bae9  Batt_AddService                                                           
0000bb81  ICallPlatform_pwrConfigACAction                                           
0000bbcd  Io_getParameter                                                           
0000bc19  NOROM_OSCClockSourceSet                                                   
0000bc65  SensorI2C_read                                                            
0000bcb1  SensorI2C_write                                                           
0000bcfd  SensorTagIO_reset                                                         
0000be2d  copy_in                                                                   
0000bec5  GATTServApp_WriteCharCfg                                                  
0000c081  GAP_GetParamValue                                                         
0000c0c9  GAP_SetParamValue                                                         
0000c111  I2C_open                                                                  
0000c159  NOROM_ChipInfo_GetChipFamily                                              
0000c1a1  NOROM_DDI16BitfieldWrite                                                  
0000c279  SPI_open                                                                  
0000c2c1  SensorMpu9250_accReadRange                                                
0000c309  SensorMpu9250_enable                                                      
0000c399  Util_restartClock                                                         
0000c4b9  SensorMpu9250_accRead                                                     
0000c4ff  SensorMpu9250_gyroRead                                                    
0000c545  Barometer_addService                                                      
0000c589  Humidity_addService                                                       
0000c699  IRTemp_addService                                                         
0000c6dd  Io_addService                                                             
0000c721  Movement_addService                                                       
0000c765  Optic_addService                                                          
0000c7a9  PIN_setInterrupt                                                          
0000c7ed  SensorBmp280_init                                                         
0000c831  SensorTagBuzzer_open                                                      
0000c875  ResetISR                                                                  
0000c875  _c_int00                                                                  
0000c97d  ICall_heapFree                                                            
0000c9bd  NOROM_DDI16BitfieldRead                                                   
0000c9fd  PINCC26XX_setMux                                                          
0000ca3d  PIN_setConfig                                                             
0000ca7d  PIN_setOutputValue                                                        
0000cabd  SensorTagOpt_reset                                                        
0000cb7b  Util_enqueueMsg                                                           
0000cbf9  GATT_bm_alloc                                                             
0000d031  NOROM_OSC_HPOSCRelativeFrequencyOffsetGet                                 
0000d06d  NOROM_RFCSynthPowerDown                                                   
0000d0a9  SensorMpu9250_irqStatus                                                   
0000d0e5  linkDB_NumConns                                                           
0000d121  main                                                                      
0000d165  SensorOpt3001_enable                                                      
0000d1a1  ExtFlash_close                                                            
0000d1d9  GAPRole_createTask                                                        
0000d251  SensorMpu9250_init                                                        
0000d289  SensorTagBar_createTask                                                   
0000d2c1  SensorTagBar_init                                                         
0000d2f9  SensorTagHum_createTask                                                   
0000d331  SensorTagTmp_createTask                                                   
0000d369  SensorTag_createTask                                                      
0000d411  __aeabi_f2d                                                               
0000d4b9  ti_sysbios_family_arm_cc26xx_Timer_getCurrentTick__E                      
0000d565  SensorBmp280_enable                                                       
0000d59b  GAPBondMgr_LinkTerm                                                       
0000d5d1  GAPRole_TerminateConnection                                               
0000d66d  NOROM_OSCHF_SwitchToRcOscTurnOffXosc                                      
0000d6a1  NOROM_TRNGConfigure                                                       
0000d6d5  PowerCC26XX_isStableXOSC_HF                                               
0000d709  SensorHdc1000_init                                                        
0000d73d  SensorTagBatt_init                                                        
0000d809  ti_sysbios_family_arm_cc26xx_Timer_setNextTick__E                         
0000d83d  Batt_MeasLevel                                                            
0000d86d  GAPBondMgr_Register                                                       
0000d89d  GGS_SetParameter                                                          
0000d8fd  NOROM_SetupSetAonRtcSubSecInc                                             
0000d92d  Power_releaseConstraint                                                   
0000d95d  Power_setConstraint                                                       
0000d98d  SensorHdc1000_start                                                       
0000d9bd  SensorMpu9250_powerOn                                                     
0000d9ed  SensorTagHum_init                                                         
0000da1d  TRNGCC26XX_init                                                           
0000db6d  ti_sysbios_BIOS_atExitFunc__I                                             
0000dba5  ti_sysbios_BIOS_startFunc__I                                              
0000dbfd  ti_sysbios_family_arm_cc26xx_Timer_initDevice__I                          
0000dc2d  ti_sysbios_family_arm_cc26xx_Timer_setThreshold__I                        
0000dc5d  GATT_Indication                                                           
0000dd71  GATT_Notification                                                         
0000df55  NOROM_DDI32RegWrite                                                       
0000df81  NOROM_SetupGetTrimForRadcExtCfg                                           
0000dfad  PINCC26XX_getPinCount                                                     
0000e005  SensorTagBatt_processCharChangeEvt                                        
0000e031  SensorTagBuzzer_close                                                     
0000e05d  SensorTagIO_init                                                          
0000e089  SensorTagMov_reset                                                        
0000e0b5  SensorTagTmp_init                                                         
0000e0ea  __checksum_value_CommonROM                                                
0000e165  ti_sysbios_knl_Clock_getTicksUntilInterrupt__E                            
0000e265  GAPRole_StartDevice                                                       
0000e2dd  NOROM_AONBatMonTemperatureGetDegC                                         
0000e305  PowerCC26XX_switchXOSC_HF                                                 
0000e32d  Power_registerNotify                                                      
0000e355  SafeHapiVoid                                                              
0000e37d  SensorMpu9250_powerOff                                                    
0000e3a5  SensorTagBar_reset                                                        
0000e3cd  SensorTagBatt_reset                                                       
0000e41d  SensorTagTmp_reset                                                        
0000e445  TRNGCC26XX_open                                                           
0000e46d  Util_dequeueMsg                                                           
0000e49d  ti_sysbios_family_arm_cc26xx_Timer_getMaxTicks__E                         
0000e4ed  AssertHandler                                                             
0000e539  List_put                                                                  
0000e561  Barometer_registerAppCBs                                                  
0000e585  GATT_bm_free                                                              
0000e5a9  Humidity_registerAppCBs                                                   
0000e5f1  IRTemp_registerAppCBs                                                     
0000e615  Movement_registerAppCBs                                                   
0000e639  Optic_registerAppCBs                                                      
0000e681  PIN_close                                                                 
0000e6c9  RF_runDirectCmd                                                           
0000e6ed  RF_runImmediateCmd                                                        
0000e735  SensorTagHum_reset                                                        
0000e77d  SensorTag_updateAdvertisingData                                           
0000e7c5  ti_sysbios_BIOS_registerRTSLock__I                                        
0000e7e9  ti_sysbios_BIOS_removeRTSLock__I                                          
0000e80d  GATTServApp_ReadCharCfg                                                   
0000e8d9  memcmp                                                                    
0000e8fd  GAP_TerminateAuth                                                         
0000e95d  ICallPlatform_pwrDispense                                                 
0000e97d  ICallPlatform_pwrRequire                                                  
0000e9fd  Io_registerAppCBs                                                         
0000ea1d  NOROM_RFCDoorbellSendTo                                                   
0000ea3d  NOROM_RFCRfTrimRead                                                       
0000ea5d  NOROM_SetupGetTrimForXoscHfCtl                                            
0000ea9d  PIN_getConfig                                                             
0000eabd  Power_unregisterNotify                                                    
0000eadd  RF_flushCmd                                                               
0000eafd  RF_getCmdOp                                                               
0000eb1d  SPICC26XXDMA_init                                                         
0000eb9d  openTRNG                                                                  
0000ebbd  __aeabi_ui2d                                                              
0000ebdd  ti_sysbios_BIOS_rtsLock__I                                                
0000ec05  ti_sysbios_knl_Clock_stop__E                                              
0000ec25  Power_getTransitionLatency                                                
0000ee7d  GAP_EndDiscoverable                                                       
0000ee99  GAP_MakeDiscoverable                                                      
0000eeed  NOROM_OSCClockSourceGet                                                   
0000ef09  NOROM_SetupGetTrimForAmpcompTh2                                           
0000ef25  NOROM_SetupGetTrimForRcOscLfRtuneCtuneTrim                                
0000ef41  PIN_registerIntCb                                                         
0000ef5d  RF_cancelCmd                                                              
0000ef79  SensorI2C_readReg                                                         
0000efe9  Util_isActive                                                             
0000f005  driverTable_fnSpinlock                                                    
0000f059  ti_sysbios_family_arm_cc26xx_Timer_dynamicStub__E                         
0000f075  ExtFlash_test                                                             
0000f08f  ICall_leaveCSImpl                                                         
0000f0a9  List_remove                                                               
0000f0dd  SensorMpu9250_powerIsOn                                                   
0000f0f7  SensorTag_charValueChangeCB                                               
0000f145  DevInfo_AddService                                                        
0000f175  GAP_UpdateLinkParamReq                                                    
0000f18d  GAP_UpdateLinkParamReqReply                                               
0000f1a5  I2CCC26XX_init                                                            
0000f205  NOROM_AONRTCCurrentCompareValueGet                                        
0000f21d  NOROM_ChipInfo_GetPackageType                                             
0000f235  NOROM_OSCHF_TurnOnXosc                                                    
0000f24d  NOROM_RFCCpeIntGetAndClear                                                
0000f265  NOROM_SetupGetTrimForAdcShModeEn                                          
0000f27d  NOROM_SetupGetTrimForAdcShVbufEn                                          
0000f295  NOROM_SetupGetTrimForAmpcompTh1                                           
0000f2ad  NOROM_SetupGetTrimForDblrLoopFilterResetVoltage                           
0000f2c5  NOROM_SetupGetTrimForRcOscLfIBiasTrim                                     
0000f2dd  NOROM_SetupGetTrimForXoscLfRegulatorAndCmirrwrRatio                       
0000f2f5  Power_idleFunc                                                            
0000f30d  RF_Params_init                                                            
0000f325  SPI_Params_init                                                           
0000f39d  SensorTagBatt_processSensorEvent                                          
0000f42d  _args_main                                                                
0000f445  __aeabi_lmul                                                              
0000f45d  ti_sysbios_BIOS_rtsUnlock__I                                              
0000f47d  ti_sysbios_knl_Swi_or__E                                                  
0000f495  ti_sysbios_rom_cortexm_cc26xx_CC26xx_checkRevision__E                     
0000f4ad  I2C_transfer                                                              
0000f4d9  ICall_enterCSImpl                                                         
0000f51b  SPI_transfer                                                              
0000f573  ti_sysbios_BIOS_exitFunc__I                                               
0000f801  Batt_Register                                                             
0000f879  I2C_Params_init                                                           
0000f88d  ICallPlatform_pwrGetXOSCStartupTime                                       
0000f8a1  NOROM_AONRTCCurrent64BitValueGet                                          
0000f8b5  NOROM_ThisCodeIsBuiltForCC26xxHwRev22AndLater_HaltIfViolated              
0000f8dd  RegisterAssertCback                                                       
0000f8f1  SensorI2C_deselect                                                        
0000f905  SensorMpu9250_registerCallback                                            
0000f92d  UDMACC26XX_hwiIntFxn                                                      
0000f941  Util_constructQueue                                                       
0000f95d  Util_startClock                                                           
0000f971  Util_stopClock                                                            
0000f9ad  _register_unlock                                                          
0000f9b3  _register_lock                                                            
0000f9bb  _nop                                                                      
0000f9c1  strlen                                                                    
0000f9d5  ti_sysbios_knl_Clock_doTick__I                                            
0000fa05  I2CCC26XX_control                                                         
0000fa17  I2C_close                                                                 
0000fa3b  SPI_close                                                                 
0000fb01  xdc_runtime_Startup_exec__I                                               
0000fb1d  DefaultAssertCback                                                        
0000fb2d  GGS_AddService                                                            
0000fb3d  ICallPlatform_pwrGetTransitionState                                       
0000fb4d  ICallPlatform_pwrIsStableXOSCHF                                           
0000fbed  NOROM_RFCRfTrimSet                                                        
0000fbfd  NOROM_SetupGetTrimForXoscHfFastStart                                      
0000fc0d  NOROM_SetupGetTrimForXoscHfIbiastherm                                     
0000fc1d  PIN_getOutputValue                                                        
0000fc4d  ti_sysbios_family_arm_m3_Hwi_post__E                                      
0000fc4d  ti_sysbios_hal_Hwi_HwiProxy_post__E                                       
0000fc4d  ti_sysbios_hal_Hwi_post__E                                                
0000fc9d  GATTServApp_AddService                                                    
0000fcab  ICall_mallocImpl                                                          
0000fcb9  NOROM_SetupSignExtendVddrTrimValue                                        
0000fcc7  NOROM_VIMSModeGet                                                         
0000fcf1  __TI_decompress_none                                                      
0000fcff  ti_sysbios_family_arm_cc26xx_TimestampProvider_get32__E                   
0000fcff  xdc_runtime_Timestamp_SupportProxy_get32__E__mangled__                    
0000fd0d  ICallPlatform_pwrSwitchXOSCHF                                             
0000fd19  ICall_freeImpl                                                            
0000fd31  NOROM_CPUcpsid                                                            
0000fd3d  NOROM_CPUcpsie                                                            
0000fd49  Power_getConstraintMask                                                   
0000fd55  Power_getDependencyCount                                                  
0000fd61  Power_getTransitionState                                                  
0000fd79  SensorOpt3001_init                                                        
0000fd85  SensorTag_testResult                                                      
0000fdb5  gapRole_clockHandler                                                      
0000fdc1  ti_sysbios_BIOS_getThreadType__E                                          
0000fdd9  ti_sysbios_hal_Hwi_Params__init__S                                        
0000fe4d  ti_sysbios_knl_Swi_getTrigger__E                                          
0000fead  xdc_runtime_Startup_reset__I                                              
0000feb9  xdc_runtime_Startup_rtsDone__E                                            
0000fec5  List_empty                                                                
0000fed9  SensorTmp007_init                                                         
0000fee3  NOROM_CPUdelay                                                            
0000fee9  __TI_decompress_rle24                                                     
0000feef  ti_sysbios_family_arm_m3_Hwi_setFunc__E                                   
0000fef5  HwiP_disable                                                              
0000fef9  List_next                                                                 
0000ff01  ti_sysbios_family_arm_cc26xx_Timer_getCount64__E                          
0000ff05  ti_sysbios_knl_Clock_isActive__E                                          
0000ff09  ti_sysbios_knl_Clock_setPeriod__E                                         
0000ff0d  ti_sysbios_knl_Queue_insert__E                                            
000100ec  BoardGpioInitTable                                                        
00010154  resourceDB                                                                
000101a0  rfDriverTable                                                             
00010234  spiCC26XXDMAHWAttrs                                                       
0001026c  txPowerTable                                                              
00010294  SPI_config                                                                
000102b8  xdc_runtime_Startup_sfxnTab__A                                            
000102dc  SPI_defaultParams                                                         
000102fc  SPICC26XXDMA_fxnTable                                                     
00010318  I2CCC26XX_fxnTable                                                        
00010330  I2C_config                                                                
00010360  i2cCC26xxHWAttrs                                                          
000103b1  xdc_runtime_Text_charTab__A                                               
000103b2  xdc_runtime_Startup_sfxnRts__A                                            
000103d5  ioConfUUID                                                                
000103e5  ioDataUUID                                                                
000103f5  ioServUUID                                                                
00010545  battLevelUUID                                                             
00010548  I2C_defaultParams                                                         
00010558  PowerCC26XX_config                                                        
00010568  TRNGCC26XX_config                                                         
00010578  UDMACC26XX_config                                                         
00010594  battCBs                                                                   
000105a0  devInfoCBs                                                                
000105ac  ioCBs                                                                     
000105f4  trngDriverTable                                                           
00010600  xdc_runtime_Startup_firstFxns__A                                          
0001060c  PINCC26XX_hwAttrs                                                         
0001067c  udmaHWAttrs                                                               
00010684  txPwrTbl                                                                  
0001069c  RFCC26XX_hwAttrs                                                          
000106a0  TRNGCC26XXHWAttrs                                                         
000106ac  ti_sysbios_knl_Clock_tickPeriod__C                                        
000106b0  ti_sysbios_knl_Clock_triggerClock__C                                      
000106b4  ti_sysbios_knl_Idle_funcList__A                                           
000106b8  battServUUID                                                              
000106ba  charFormatUUID                                                            
000106bc  characterUUID                                                             
000106be  clientCharCfgUUID                                                         
000106c0  devInfo11073CertUUID                                                      
000106c2  devInfoFirmwareRevUUID                                                    
000106c4  devInfoHardwareRevUUID                                                    
000106c6  devInfoMfrNameUUID                                                        
000106c8  devInfoModelNumberUUID                                                    
000106ca  devInfoPnpIdUUID                                                          
000106cc  devInfoSerialNumberUUID                                                   
000106ce  devInfoServUUID                                                           
000106d0  devInfoSoftwareRevUUID                                                    
000106d2  devInfoSystemIdUUID                                                       
000106d4  primaryServiceUUID                                                        
000106d6  reportRefUUID                                                             
0001f000  __TI_static_base__                                                        
0001f9bc  __TI_Handler_Table_Base                                                   
0001f9c4  __TI_CINIT_Base                                                           
0001f9c4  __TI_Handler_Table_Limit                                                  
0001fa44  __TI_CINIT_Limit                                                          
0001ffa8  __ccfg                                                                    
10014c00  A1_rw                                                                     
10014c00  __checksum_begin_CommonROM                                                
10014c01  COMMON_ROM_BASE_ADDR                                                      
10014c04  P1_ro                                                                     
10014c05  SCALARMUL_init                                                            
10014ced  SCALARMUL_core                                                            
10015019  SCALARMUL_final                                                           
100150e5  SCALARMUL                                                                 
10015101  SAVEPOINT                                                                 
10015141  GETBIT                                                                    
10015155  GETDIGIT                                                                  
100151a5  GETDIGITL2R                                                               
10015215  SelectReg                                                                 
10015229  ATOMICPATTERN                                                             
100154f5  JACADD                                                                    
1001568d  INVERT                                                                    
10015821  SQUAREMULTIPLYWORD                                                        
1001588c  LUTOPCODE                                                                 
10015894  LUTOPSIGN                                                                 
100158ac  LUTC                                                                      
100158c4  LUTSE                                                                     
100158dc  LUTINCI                                                                   
100158f4  LUTJ                                                                      
1001596c  LUTSTATE                                                                  
100159a9  IMPORTLENGTH                                                              
100159ad  IMPORTMODULUS                                                             
100159d1  IMPORTOPERAND                                                             
10015a11  EXPORTOPERAND                                                             
10015a35  IMPORTDATA                                                                
10015a51  SETOPERAND                                                                
10015a6d  COPY                                                                      
10015a85  ZERO                                                                      
10015a91  SETWORD                                                                   
10015a9d  mSET                                                                      
10015bcd  zSET                                                                      
10015bd5  mINVK                                                                     
10015d19  zADD                                                                      
10015d5d  zSUB                                                                      
10015de9  zMACC32                                                                   
10015e69  zSUB32                                                                    
10015eb5  zADD32                                                                    
10015f0d  zMULT32                                                                   
10015f81  mMULT                                                                     
10016551  mADD                                                                      
1001664d  mSUB                                                                      
10016749  mOUT                                                                      
10016975  ssp_KeyInit_Sw                                                            
10016979  sspAesEncrypt_Sw                                                          
10016985  sspKeyExpansion_Sw                                                        
10016a99  sspAesEncryptKeyExp_Sw                                                    
10016af5  sspAesEncryptBasic_Sw                                                     
10016b79  RoundKey_Sw                                                               
10016c29  AddRoundKeySubBytes_Sw                                                    
10016c45  ShiftRows_Sw                                                              
10016c79  MixColumns_Sw                                                             
10016d05  FFMult_Sw                                                                 
10016d29  sspAesDecrypt_Sw                                                          
10016da1  InvAddRoundKey_Sw                                                         
10016dc9  InvRoundKey_Sw                                                            
10016e8d  InvSubBytes_Sw                                                            
10016ea1  InvShiftRows_Sw                                                           
10016ed5  InvMixColumns_Sw                                                          
10016f58  FFMult2                                                                   
10017058  FFMult3                                                                   
10017158  RCon                                                                      
10017164  Sbox                                                                      
10017264  InvSbox                                                                   
10017365  SSP_CCM_Auth_Sw                                                           
100174fd  SSP_CCM_Encrypt_Sw                                                        
100175ed  SSP_CTR_Encrypt_Sw                                                        
1001767d  SSP_CCM_Decrypt_Sw                                                        
10017771  SSP_CTR_Decrypt_Sw                                                        
10017839  SSP_CCM_InvAuth_Sw                                                        
10017895  SSP_CCM_Auth_Encrypt_Sw                                                   
100178f5  SSP_CCM_InvAuth_Decrypt_Sw                                                
10017959  ECC_allocWorkzone                                                         
10017961  ECC_setWin                                                                
10017969  ECDSA_sign                                                                
10017b01  ECDSA_verif                                                               
10017dbd  eccRom_genKeys                                                            
10017ded  eccRom_genSharedSecret                                                    
10017e39  SHA256_updateW                                                            
10017e75  SHA256_round                                                              
10017ef1  SHA256_nextState                                                          
10017f49  SHA256_saveBuffer                                                         
10017ffd  SHA256_init                                                               
10018019  SHA256_process                                                            
10018089  SHA256_final                                                              
10018129  SHA256_full                                                               
100182ad  RFHAL_InitRfHal                                                           
10018315  RFHAL_AllocRatChan                                                        
1001833d  RFHAL_FreeRatChan                                                         
10018369  RFHAL_MapRatChansToInt                                                    
10018391  RFHAL_RegisterRatChanCallback                                             
100183b9  RFHAL_InitDataQueue                                                       
100183c5  RFHAL_QueueRFDataEntries                                                  
10018415  RFHAL_AddTxDataEntry                                                      
10018485  RFHAL_FreeNextTxDataEntry                                                 
100184a9  RFHAL_AllocDataEntryQueue                                                 
100184c5  RFHAL_FreeDataEntryQueue                                                  
100184cd  RFHAL_GetNextDataEntry                                                    
100184d1  RFHAL_GetTempDataEntry                                                    
100184d5  RFHAL_NextDataEntryDone                                                   
100184f9  RFHAL_AllocDataEntry                                                      
10018549  RFHAL_FreeDataEntry                                                       
10018551  RFHAL_BuildRingBuffer                                                     
100185e1  RFHAL_BuildDataEntryRingBuffer                                            
10018669  RFHAL_BuildLinkedBuffer                                                   
10018755  MB_Init                                                                   
10018799  MB_EnableInts                                                             
100187f5  MB_DisableInts                                                            
10018825  MB_ClearInts                                                              
10018835  MB_EnableHWInts                                                           
10018865  MB_SendCommand                                                            
100188a5  MB_SendCommandSynch                                                       
10018935  MB_ReadMailboxStatus                                                      
1001893d  MB_RegisterIsrCback                                                       
10018945  MB_FwDebugDump                                                            
10018949  mbCmdAckIsr                                                               
1001895d  mbCpe0Isr                                                                 
10018985  mbCpe1Isr                                                                 
100189e5  mbHwIsr                                                                   
10018a19  AesCcm_authEncrypt_Sw                                                     
10018a35  AesCcm_decryptAuth_Sw                                                     
10018a99  Aes_encrypt_Sw                                                            
10018ac5  Aes_decrypt_Sw                                                            
10018b09  AesCcm_getNumBlocks_Sw                                                    
10018b0c  NIST_Curve_P256_p                                                         
10018b30  NIST_Curve_P256_r                                                         
10018b54  NIST_Curve_P256_a                                                         
10018b78  NIST_Curve_P256_b                                                         
10018b9c  NIST_Curve_P256_Gx                                                        
10018bc0  NIST_Curve_P256_Gy                                                        
10018ced  __exit                                                                    
10018d6c  Fill1                                                                     
10019ffc  A3_rw                                                                     
10019ffd  __checksum_end_CommonROM                                                  
10019ffe  A2_rw                                                                     
10019ffe  P1_ro_2                                                                   
10019ffe  __checksum_CommonROM                                                      
1001a001  ti_sysbios_knl_Mailbox_Instance_init__E                                   
1001a0cd  ti_sysbios_knl_Semaphore_pend__E                                          
1001a199  ti_sysbios_heaps_HeapMem_alloc__E                                         
1001a25d  ti_sysbios_knl_Task_Instance_init__E                                      
1001a319  ti_sysbios_family_arm_m3_Hwi_postInit__I                                  
1001a3c9  ti_sysbios_family_arm_m3_Hwi_Instance_init__E                             
1001a469  ti_sysbios_family_arm_cc26xx_Timer_periodicStub__E                        
1001a4fd  ti_sysbios_knl_Task_Instance_finalize__E                                  
1001a591  ti_sysbios_knl_Mailbox_post__E                                            
1001a615  ti_sysbios_knl_Task_postInit__I                                           
1001a699  ti_sysbios_family_arm_m3_Hwi_initNVIC__E                                  
1001a719  ti_sysbios_knl_Clock_startI__E                                            
1001a795  ti_sysbios_heaps_HeapMem_free__E                                          
1001a80d  ti_sysbios_knl_Clock_walkQueueDynamic__E                                  
1001a885  ti_sysbios_knl_Clock_workFunc__E                                          
1001a8fd  ti_sysbios_knl_Mailbox_pend__E                                            
1001a96d  ti_sysbios_knl_Task_sleep__E                                              
1001a9dd  ti_sysbios_knl_Mailbox_Instance_finalize__E                               
1001aa49  ti_sysbios_family_arm_m3_Hwi_dispatchC__I                                 
1001aab1  ti_sysbios_family_arm_m3_Hwi_Object__create__S                            
1001ab15  ti_sysbios_family_arm_m3_Hwi_create                                       
1001ab79  ti_sysbios_hal_Hwi_create                                                 
1001abdd  ti_sysbios_knl_Mailbox_create                                             
1001ac41  ti_sysbios_knl_Semaphore_post__E                                          
1001aca5  ti_sysbios_knl_Swi_Instance_init__E                                       
1001ad05  ti_sysbios_knl_Swi_create                                                 
1001ad61  ti_sysbios_knl_Swi_restoreHwi__E                                          
1001adbd  ti_sysbios_knl_Task_Module_startup__E                                     
1001ae19  ti_sysbios_knl_Task_create                                                
1001ae75  ti_sysbios_knl_Task_startCore__E                                          
1001aed1  ti_sysbios_family_arm_m3_Hwi_Instance_finalize__E                         
1001af29  ti_sysbios_family_arm_m3_Hwi_construct                                    
1001af81  ti_sysbios_knl_Mailbox_construct                                          
1001afd9  ti_sysbios_knl_Swi_run__I                                                 
1001b031  ti_sysbios_knl_Swi_schedule__I                                            
1001b085  ti_sysbios_knl_Swi_construct                                              
1001b0d5  ti_sysbios_knl_Swi_runLoop__I                                             
1001b125  ti_sysbios_knl_Task_construct                                             
1001b175  ti_sysbios_knl_Task_schedule__I                                           
1001b1c1  ti_sysbios_family_arm_m3_Hwi_Module_startup__E                            
1001b209  ti_sysbios_heaps_HeapMem_getStats__E                                      
1001b251  ti_sysbios_knl_Mailbox_Module_startup__E                                  
1001b299  ti_sysbios_family_arm_m3_Hwi_disableInterrupt__E                          
1001b2dd  ti_sysbios_family_arm_m3_Hwi_enableInterrupt__E                           
1001b321  ti_sysbios_knl_Swi_post__E                                                
1001b365  ti_sysbios_knl_Task_allBlockedFunction__I                                 
1001b3a9  ti_sysbios_knl_Task_yield__E                                              
1001b3ed  ti_sysbios_knl_Clock_create                                               
1001b429  ti_sysbios_knl_Task_exit__E                                               
1001b463  ti_sysbios_gates_GateHwi_Instance_init__E                                 
1001b465  ti_sysbios_family_arm_m3_Hwi_getStackInfo__E                              
1001b49d  ti_sysbios_family_arm_m3_TaskSupport_start__E                             
1001b4d5  ti_sysbios_heaps_HeapMem_Instance_init__E                                 
1001b50d  ti_sysbios_knl_Clock_Instance_init__E                                     
1001b545  ti_sysbios_heaps_HeapMem_init__I                                          
1001b579  ti_sysbios_knl_Clock_construct                                            
1001b5ad  ti_sysbios_knl_Semaphore_create                                           
1001b5e1  ti_sysbios_knl_Swi_restore__E                                             
1001b615  ti_sysbios_knl_Task_blockI__E                                             
1001b649  ti_sysbios_gates_GateMutex_Object__create__S                              
1001b679  ti_sysbios_gates_GateMutex_create                                         
1001b6a9  ti_sysbios_gates_GateMutex_enter__E                                       
1001b6d9  ti_sysbios_knl_Clock_getTicks__E                                          
1001b709  ti_sysbios_knl_Semaphore_construct                                        
1001b739  ti_sysbios_knl_Task_processVitalTaskFlag__I                               
1001b769  ti_sysbios_family_arm_cc26xx_Timer_postInit__I                            
1001b795  ti_sysbios_family_arm_cc26xx_Timer_startup__E                             
1001b795  ti_sysbios_knl_Clock_TimerProxy_startup__E                                
1001b7c1  ti_sysbios_family_arm_m3_Hwi_Object__get__S                               
1001b7ed  ti_sysbios_gates_GateMutex_construct                                      
1001b819  ti_sysbios_hal_Hwi_initStack                                              
1001b845  ti_sysbios_heaps_HeapMem_Object__create__S                                
1001b871  ti_sysbios_heaps_HeapMem_Object__get__S                                   
1001b89d  ti_sysbios_knl_Mailbox_Object__get__S                                     
1001b8c9  ti_sysbios_knl_Mailbox_postInit__I                                        
1001b8f5  ti_sysbios_knl_Queue_construct                                            
1001b921  ti_sysbios_knl_Queue_create                                               
1001b94d  ti_sysbios_knl_Semaphore_pendTimeout__I                                   
1001b979  ti_sysbios_knl_Swi_Object__get__S                                         
1001b9a5  ti_sysbios_knl_Task_unblockI__E                                           
1001b9d1  ti_sysbios_family_arm_cc26xx_TimestampProvider_get64__E                   
1001b9d1  xdc_runtime_Timestamp_SupportProxy_get64__E                               
1001b9d1  xdc_runtime_Timestamp_get64__E                                            
1001b9f9  ti_sysbios_hal_Hwi_Instance_init__E                                       
1001ba21  ti_sysbios_knl_Clock_addI__E                                              
1001ba49  ti_sysbios_knl_Task_restore__E                                            
1001ba71  ti_sysbios_family_arm_cc26xx_Timer_Module_startup__E                      
1001ba95  ti_sysbios_gates_GateHwi_Object__create__S                                
1001bab9  ti_sysbios_BIOS_RtsGateProxy_Object__delete__S                            
1001bab9  ti_sysbios_gates_GateMutex_Object__delete__S                              
1001bab9  ti_sysbios_heaps_HeapMem_Module_GateProxy_Object__delete__S               
1001badd  ti_sysbios_knl_Clock_Object__delete__S                                    
1001bb01  ti_sysbios_knl_Semaphore_Instance_init__E                                 
1001bb25  ti_sysbios_knl_Semaphore_Object__delete__S                                
1001bb49  ti_sysbios_family_arm_cc26xx_Timer_Module__startupDone__S                 
1001bb69  ti_sysbios_family_arm_cc26xx_TimestampProvider_Module_startup__E          
1001bb89  ti_sysbios_family_arm_m3_Hwi_Module__startupDone__S                       
1001bba9  ti_sysbios_family_arm_m3_Hwi_Object__delete__S                            
1001bba9  ti_sysbios_hal_Hwi_HwiProxy_Object__delete__S                             
1001bbc9  ti_sysbios_family_arm_m3_Hwi_excHandler__I                                
1001bbe9  ti_sysbios_gates_GateHwi_Handle__label__S                                 
1001bbe9  xdc_runtime_System_Module_GateProxy_Handle__label__S                      
1001bc09  ti_sysbios_gates_GateHwi_Object__delete__S                                
1001bc09  xdc_runtime_System_Module_GateProxy_Object__delete__S                     
1001bc29  ti_sysbios_BIOS_RtsGateProxy_Handle__label__S                             
1001bc29  ti_sysbios_gates_GateMutex_Handle__label__S                               
1001bc29  ti_sysbios_heaps_HeapMem_Module_GateProxy_Handle__label__S                
1001bc49  ti_sysbios_gates_GateMutex_Object__destruct__S                            
1001bc69  ti_sysbios_hal_Hwi_Object__delete__S                                      
1001bc89  ti_sysbios_heaps_HeapMem_Handle__label__S                                 
1001bc89  xdc_runtime_Memory_HeapProxy_Handle__label__S                             
1001bca9  ti_sysbios_heaps_HeapMem_Object__delete__S                                
1001bca9  xdc_runtime_Memory_HeapProxy_Object__delete__S                            
1001bcc9  ti_sysbios_knl_Clock_Module_startup__E                                    
1001bce9  ti_sysbios_knl_Clock_Object__destruct__S                                  
1001bd09  ti_sysbios_knl_Idle_run__E                                                
1001bd29  ti_sysbios_knl_Mailbox_Object__delete__S                                  
1001bd49  ti_sysbios_knl_Queue_Object__delete__S                                    
1001bd69  ti_sysbios_knl_Queue_Object__get__S                                       
1001bd89  ti_sysbios_knl_Semaphore_Object__destruct__S                              
1001bda9  ti_sysbios_knl_Swi_Object__delete__S                                      
1001bdc9  ti_sysbios_knl_Task_Object__delete__S                                     
1001bde9  ti_sysbios_knl_Task_Object__get__S                                        
1001be09  ti_sysbios_knl_Task_enter__I                                              
1001be29  ti_sysbios_knl_Task_restoreHwi__E                                         
1001be49  ti_sysbios_hal_Hwi_HwiProxy_create                                        
1001be67  ti_sysbios_knl_Clock_logTick__E                                           
1001be69  ti_sysbios_family_arm_m3_Hwi_Object__destruct__S                          
1001be85  ti_sysbios_family_arm_m3_Hwi_setPriority__E                               
1001bea1  ti_sysbios_gates_GateMutex_Instance_init__E                               
1001bebd  ti_sysbios_knl_Clock_scheduleNextTick__E                                  
1001bed9  ti_sysbios_knl_Mailbox_Object__destruct__S                                
1001bef5  ti_sysbios_knl_Queue_Object__destruct__S                                  
1001bf11  ti_sysbios_knl_Queue_get__E                                               
1001bf2d  ti_sysbios_knl_Queue_put__E                                               
1001bf49  ti_sysbios_knl_Swi_Object__destruct__S                                    
1001bf65  ti_sysbios_knl_Task_Object__destruct__S                                   
1001bf81  ti_sysbios_knl_Task_sleepTimeout__I                                       
1001bf9b  ti_sysbios_knl_Swi_Instance_finalize__E                                   
1001bf9d  ti_sysbios_gates_GateMutex_leave__E                                       
1001bfb5  ti_sysbios_knl_Task_unblock__E                                            
1001bfcd  ti_sysbios_knl_Clock_Instance_finalize__E                                 
1001bfe3  ti_sysbios_knl_Clock_start__E                                             
1001bff9  ti_sysbios_BIOS_getCpuFreq__E                                             
1001c00d  ti_sysbios_family_arm_m3_Hwi_switchFromBootStack__E                       
1001c021  ti_sysbios_hal_Hwi_Module_startup__E                                      
1001c035  ti_sysbios_BIOS_exit__E                                                   
1001c045  ti_sysbios_BIOS_setThreadType__E                                          
1001c055  ti_sysbios_BIOS_start__E                                                  
1001c065  ti_sysbios_family_arm_m3_Hwi_plug__E                                      
1001c075  ti_sysbios_gates_GateMutex_Instance_finalize__E                           
1001c085  ti_sysbios_hal_Hwi_HwiProxy_Object__create__S                             
1001c095  ti_sysbios_knl_Clock_TimerProxy_getCurrentTick__E                         
1001c0a5  ti_sysbios_knl_Clock_TimerProxy_getMaxTicks__E                            
1001c0b5  ti_sysbios_knl_Clock_TimerProxy_setNextTick__E                            
1001c0c5  ti_sysbios_knl_Semaphore_Instance_finalize__E                             
1001c0d5  ti_sysbios_knl_Swi_disable__E                                             
1001c0e5  ti_sysbios_knl_Swi_enabled__E                                             
1001c0f5  ti_sysbios_knl_Task_disable__E                                            
1001c105  ti_sysbios_heaps_HeapMem_restore__E                                       
1001c113  ti_sysbios_knl_Queue_empty__E                                             
1001c121  ti_sysbios_knl_Queue_remove__E                                            
1001c12f  ti_sysbios_family_arm_cc26xx_TimestampProvider_getFreq__E                 
1001c12f  xdc_runtime_Timestamp_SupportProxy_getFreq__E                             
1001c12f  xdc_runtime_Timestamp_getFreq__E                                          
1001c13d  ti_sysbios_family_arm_m3_Hwi_Params__init__S                              
1001c13d  ti_sysbios_hal_Hwi_HwiProxy_Params__init__S                               
1001c149  ti_sysbios_family_arm_m3_Hwi_disableFxn__E                                
1001c155  ti_sysbios_family_arm_m3_Hwi_enableFxn__E                                 
1001c161  ti_sysbios_family_arm_m3_TaskSupport_getStackAlignment__E                 
1001c16d  ti_sysbios_gates_GateHwi_enter__E                                         
1001c179  ti_sysbios_BIOS_RtsGateProxy_Params__init__S                              
1001c179  ti_sysbios_gates_GateMutex_Params__init__S                                
1001c179  ti_sysbios_heaps_HeapMem_Module_GateProxy_Params__init__S                 
1001c185  ti_sysbios_knl_Clock_Params__init__S                                      
1001c191  ti_sysbios_knl_Clock_getTimerHandle__E                                    
1001c19d  ti_sysbios_knl_Mailbox_Params__init__S                                    
1001c1a9  ti_sysbios_knl_Queue_dequeue__E                                           
1001c1b5  ti_sysbios_knl_Queue_enqueue__E                                           
1001c1c1  ti_sysbios_knl_Semaphore_Params__init__S                                  
1001c1cd  ti_sysbios_knl_Swi_Params__init__S                                        
1001c1d9  ti_sysbios_knl_Task_Params__init__S                                       
1001c1e5  ti_sysbios_knl_Task_self__E                                               
1001c1f1  ti_sysbios_hal_Hwi_Instance_finalize__E                                   
1001c1fb  ti_sysbios_family_arm_m3_Hwi_doSwiRestore__I                              
1001c203  ti_sysbios_family_arm_m3_Hwi_startup__E                                   
1001c20b  ti_sysbios_knl_Idle_loop__E                                               
1001c213  ti_sysbios_family_arm_m3_Hwi_doTaskRestore__I                             
1001c219  ti_sysbios_family_arm_m3_Hwi_restoreFxn__E                                
1001c21f  ti_sysbios_gates_GateHwi_leave__E                                         
1001c22b  ti_sysbios_knl_Queue_Instance_init__E                                     
1001c231  ti_sysbios_knl_Queue_elemClear__E                                         
1001c237  ti_sysbios_knl_Swi_Module_startup__E                                      
1001c23d  ti_sysbios_knl_Swi_startup__E                                             
1001c243  ti_sysbios_knl_Task_enable__E                                             
1001c249  ti_sysbios_BIOS_RtsGateProxy_enter__E                                     
1001c24d  ti_sysbios_BIOS_RtsGateProxy_leave__E                                     
1001c251  ti_sysbios_family_arm_cc26xx_Timer_getExpiredTicks__E                     
1001c255  ti_sysbios_family_arm_cc26xx_Timer_getPeriod__E                           
1001c259  ti_sysbios_family_arm_cc26xx_Timer_setPeriod__E                           
1001c25d  ti_sysbios_family_arm_m3_Hwi_delete                                       
1001c261  ti_sysbios_family_arm_m3_Hwi_destruct                                     
1001c265  ti_sysbios_family_arm_m3_TaskSupport_Module__startupDone__S               
1001c269  ti_sysbios_gates_GateHwi_query__E                                         
1001c269  xdc_runtime_System_Module_GateProxy_query__E                              
1001c26d  ti_sysbios_gates_GateMutex_delete                                         
1001c271  ti_sysbios_gates_GateMutex_destruct                                       
1001c275  ti_sysbios_BIOS_RtsGateProxy_query__E                                     
1001c275  ti_sysbios_gates_GateMutex_query__E                                       
1001c275  ti_sysbios_heaps_HeapMem_Module_GateProxy_query__E                        
1001c279  ti_sysbios_hal_Hwi_HwiProxy_Module__startupDone__S                        
1001c27d  ti_sysbios_hal_Hwi_HwiProxy_delete                                        
1001c281  ti_sysbios_hal_Hwi_HwiProxy_disableInterrupt__E                           
1001c281  ti_sysbios_hal_Hwi_disableInterrupt__E                                    
1001c285  ti_sysbios_hal_Hwi_HwiProxy_enableInterrupt__E                            
1001c285  ti_sysbios_hal_Hwi_enableInterrupt__E                                     
1001c289  ti_sysbios_hal_Hwi_HwiProxy_getStackInfo__E                               
1001c289  ti_sysbios_hal_Hwi_getStackInfo__E                                        
1001c28d  ti_sysbios_hal_Hwi_HwiProxy_startup__E                                    
1001c28d  ti_sysbios_hal_Hwi_startup__E                                             
1001c291  ti_sysbios_hal_Hwi_HwiProxy_switchFromBootStack__E                        
1001c295  ti_sysbios_hal_Hwi_delete                                                 
1001c299  ti_sysbios_hal_Hwi_switchFromBootStack__E                                 
1001c29d  ti_sysbios_heaps_HeapMem_Module_GateProxy_enter__E                        
1001c2a1  ti_sysbios_heaps_HeapMem_Module_GateProxy_leave__E                        
1001c2a5  ti_sysbios_heaps_HeapMem_isBlocking__E                                    
1001c2a9  ti_sysbios_knl_Clock_TimerProxy_Module__startupDone__S                    
1001c2ad  ti_sysbios_knl_Clock_TimerProxy_getExpiredTicks__E                        
1001c2b1  ti_sysbios_knl_Clock_TimerProxy_getPeriod__E                              
1001c2b5  ti_sysbios_knl_Clock_delete                                               
1001c2b9  ti_sysbios_knl_Clock_destruct                                             
1001c2bd  ti_sysbios_knl_Clock_removeI__E                                           
1001c2c1  ti_sysbios_knl_Clock_setTimeout__E                                        
1001c2c5  ti_sysbios_knl_Mailbox_delete                                             
1001c2c9  ti_sysbios_knl_Mailbox_destruct                                           
1001c2cd  ti_sysbios_knl_Queue_delete                                               
1001c2d1  ti_sysbios_knl_Queue_destruct                                             
1001c2d5  ti_sysbios_knl_Queue_head__E                                              
1001c2d9  ti_sysbios_knl_Queue_next__E                                              
1001c2dd  ti_sysbios_knl_Semaphore_delete                                           
1001c2e1  ti_sysbios_knl_Semaphore_destruct                                         
1001c2e5  ti_sysbios_knl_Swi_delete                                                 
1001c2e9  ti_sysbios_knl_Swi_destruct                                               
1001c2ed  ti_sysbios_knl_Swi_postInit__I                                            
1001c2f1  ti_sysbios_knl_Task_SupportProxy_Module__startupDone__S                   
1001c2f5  ti_sysbios_knl_Task_SupportProxy_getStackAlignment__E                     
1001c2f9  ti_sysbios_knl_Task_SupportProxy_start__E                                 
1001c2fd  ti_sysbios_knl_Task_SupportProxy_swap__E                                  
1001c301  ti_sysbios_knl_Task_delete                                                
1001c305  ti_sysbios_knl_Task_destruct                                              
1001c309  ti_sysbios_knl_Task_startup__E                                            
1001c30d  xdc_runtime_Startup_startMods__I                                          
1001c405  xdc_runtime_Core_createObject__I                                          
1001c487  xdc_runtime_Error_policySpin__E                                           
1001c489  xdc_runtime_Memory_alloc__E                                               
1001c4f9  xdc_runtime_Core_deleteObject__I                                          
1001c559  xdc_runtime_Startup_exec__E                                               
1001c5a9  xdc_runtime_Assert_raise__I                                               
1001c5f1  xdc_runtime_Core_assignParams__I                                          
1001c639  xdc_runtime_Core_constructObject__I                                       
1001c681  xdc_runtime_System_atexit__E                                              
1001c6b9  xdc_runtime_System_processAtExit__E                                       
1001c6ed  xdc_runtime_Core_assignLabel__I                                           
1001c71d  xdc_runtime_Text_cordText__E                                              
1001c749  xdc_runtime_System_abort__E                                               
1001c769  xdc_runtime_Error_raiseX__E                                               
1001c785  xdc_runtime_Memory_valloc__E                                              
1001c7a1  xdc_runtime_Core_destructObject__I                                        
1001c7b9  xdc_runtime_Error_check__E                                                
1001c7d1  xdc_runtime_System_exit__E                                                
1001c7e9  xdc_runtime_Text_ropeText__E                                              
1001c801  xdc_runtime_Memory_free__E                                                
1001c811  xdc_runtime_SysCallback_abort__E                                          
1001c821  xdc_runtime_SysCallback_exit__E                                           
1001c831  xdc_runtime_Timestamp_SupportProxy_get32__E                               
1001c831  xdc_runtime_Timestamp_get32__E                                            
1001c841  xdc_runtime_Error_init__E                                                 
1001c84d  xdc_runtime_Memory_calloc__E                                              
1001c859  xdc_runtime_Memory_getMaxDefaultTypeAlign__E                              
1001c879  xdc_runtime_Gate_leaveSystem__E                                           
1001c87f  xdc_runtime_System_Module_startup__E                                      
1001c885  xdc_runtime_Gate_enterSystem__E                                           
1001c889  xdc_runtime_Memory_HeapProxy_alloc__E                                     
1001c88d  xdc_runtime_Memory_HeapProxy_free__E                                      
1001c891  xdc_runtime_System_Module_GateProxy_enter__E                              
1001c895  xdc_runtime_System_Module_GateProxy_leave__E                              
1001c899  xdc_runtime_System_abortSpin__E                                           
1001c89b  xdc_runtime_System_exitSpin__E                                            
1001c89d  ti_sysbios_family_arm_m3_Hwi_dispatch__I                                  
1001c96d  ti_sysbios_family_arm_m3_TaskSupport_buildTaskStack                       
1001c9b9  ti_sysbios_family_arm_m3_Hwi_initStacks__E                                
1001ca01  ti_sysbios_family_arm_m3_Hwi_excHandlerAsm__I                             
1001ca21  ti_sysbios_family_xxx_Hwi_switchAndRunFunc                                
1001ca3f  ti_sysbios_family_arm_m3_Hwi_pendSV__I                                    
1001ca57  ti_sysbios_family_arm_m3_Hwi_return                                       
1001ca59  ti_sysbios_family_arm_m3_TaskSupport_glue                                 
1001ca69  ti_sysbios_family_arm_m3_TaskSupport_swap__E                              
1001ca71  ti_sysbios_knl_Task_swapReturn                                            
1001ca9b  ti_sysbios_rom_cortexm_cc26xx_CC26xx_getRevision__E                       
20000000  ti_sysbios_family_arm_m3_Hwi_ramVectors                                   
20000100  ti_sysbios_knl_Task_Module__state__V                                      
20000144  ti_sysbios_family_arm_m3_Hwi_Module__state__V                             
20000178  ti_sysbios_knl_Clock_Module__state__V                                     
200001a4  ti_sysbios_BIOS_Module__state__V                                          
200001c8  ti_sysbios_knl_Swi_Module__state__V                                       
200001e4  ti_sysbios_family_arm_cc26xx_Timer_Module__state__V                       
200001ec  ti_sysbios_family_arm_cc26xx_TimestampProvider_Module__state__V           
200001f0  xdc_runtime_Startup_Module__state__V                                      
200001f8  xdc_runtime_System_Module__state__V                                       
20000200  xdc_runtime_Memory_Module__state__V                                       
20000650  PowerCC26XX_module                                                        
20000a90  rfRegTbl                                                                  
20000ae0  ti_sysbios_knl_Task_Object__table__V                                      
20000b30  ti_sysbios_family_arm_cc26xx_Timer_Object__table__V                       
20000b78  ti_sysbios_gates_GateMutex_Object__table__V                               
20000bb0  ti_sysbios_knl_Swi_Module_State_0_readyQ__A                               
20000be0  ti_sysbios_knl_Swi_Object__table__V                                       
20000c10  ti_sysbios_knl_Task_Module_State_0_readyQ__A                              
20000c40  user0Cfg                                                                  
20000c98  ti_sysbios_knl_Clock_Object__table__V                                     
20000d4c  ti_sysbios_family_arm_m3_Hwi_Object__table__V                             
20000d64  ti_sysbios_heaps_HeapMem_Object__table__V                                 
20000e48  __TI_cleanup_ptr                                                          
20000e4c  __TI_dtors_ptr                                                            
20000e50  __TI_enable_exit_profile_output                                           
20000e6c  ICall_enterCriticalSection                                                
20000e70  ICall_leaveCriticalSection                                                
20000e74  ICall_dispatcher                                                          
20000e78  lastAppOpcodeSent                                                         
20000e7c  pfnBMAlloc                                                                
20000e80  pfnBMFree                                                                 
20000e84  gapProfileState                                                           
20000e9a  ti_sysbios_family_arm_m3_Hwi_Module_State_0_excActive__A                  
20000ed8  _lock                                                                     
20000edc  _unlock                                                                   
20000f18  ti_sysbios_family_arm_m3_Hwi_Module__root__V                              
20000f20  ti_sysbios_gates_GateHwi_Module__root__V                                  
20000f28  ti_sysbios_gates_GateMutex_Module__root__V                                
20000f30  ti_sysbios_hal_Hwi_Module__root__V                                        
20000f38  ti_sysbios_heaps_HeapMem_Module__root__V                                  
20000f40  ti_sysbios_knl_Clock_Module__root__V                                      
20000f48  ti_sysbios_knl_Mailbox_Module__root__V                                    
20000f50  ti_sysbios_knl_Queue_Module__root__V                                      
20000f58  ti_sysbios_knl_Semaphore_Module__root__V                                  
20000f60  ti_sysbios_knl_Swi_Module__root__V                                        
20000f68  ti_sysbios_knl_Task_Module__root__V                                       
20000f94  appAssertCback                                                            
20000f98  main_func_sp                                                              
20000fc4  ti_sysbios_family_arm_m3_Hwi_Module_State_0_excContext__A                 
20000fc8  ti_sysbios_family_arm_m3_Hwi_Module_State_0_excStack__A                   
20000fcc  ti_sysbios_knl_Task_Module_State_0_idleTask__A                            
20000fd0  ti_sysbios_heaps_HeapMem_Instance_State_0_buf__A                          
20002018  ti_sysbios_knl_Task_Instance_State_0_stack__A                             
20002218  gapRoleTaskStack                                                          
200023d0  spiCC26XXDMAObjects                                                       
20002688  i2cCC26xxObjects                                                          
20002768  ti_sysbios_family_arm_m3_Hwi_dispatchTable                                
200028b4  PIN_HandleTable                                                           
20002ad0  gapRoleTask                                                               
20002d88  udmaObjects                                                               
20002f68  pinGpioState                                                              
20002fc4  HEAPMGR_SIZE                                                              
20002fc8  PIN_NumPins                                                               
20002fcc  hGpioPin                                                                  
20002fd0  sem                                                                       
20002fd4  trngCC26XXObjects                                                         
20002fdb  driverlib_release_0_46593                                                 
20002fdc  linkDBNumConns                                                            
20002fdd  selfEntityMain                                                            
20002fde  heapStart                                                                 
20004028  __stack                                                                   
20004028  heapEnd                                                                   
20004428  __STACK_END                                                               
20004428  __STACK_TOP                                                               
20004f2c  A4_rw                                                                     
20004f2c  COMMON_RAM_BASE_ADDR                                                      
20004f40  P2_rw                                                                     
20004f40  P2_s0                                                                     
20004f40  eccRom_windowSize                                                         
20004f44  eccRom_workzone                                                           
20004f48  eccRom_param_p                                                            
20004f4c  eccRom_param_r                                                            
20004f50  eccRom_param_a                                                            
20004f54  inScalar                                                                  
20004f58  inPointX                                                                  
20004f5c  inPointY                                                                  
20004f60  outPointX                                                                 
20004f64  outPointY                                                                 
20004f68  SCAL                                                                      
20004f6c  EXPX                                                                      
20004f70  EXPY                                                                      
20004f74  EXPZ                                                                      
20004f78  EXPW                                                                      
20004f7c  ACCX                                                                      
20004f80  ACCY                                                                      
20004f84  ACCZ                                                                      
20004f88  TMP1                                                                      
20004f8c  TMP2                                                                      
20004f90  TMP3                                                                      
20004f94  TMP4                                                                      
20004f98  TMP5                                                                      
20004f9c  TMP6                                                                      
20004fa0  eccRom_param_Gx                                                           
20004fa4  eccRom_param_Gy                                                           
20004fa8  eccRom_param_b                                                            
20004fac  P2_zi                                                                     
20004fac  ratChanInfo                                                               
20004fcc  fwInfoCmd                                                                 
20004fd8  MSBMOD                                                                    
20004fdc  aux64                                                                     
20004fe4  MOD                                                                       
20004fe8  LEN                                                                       
20004ffc  pSspAesEncrypt_Sw                                                         
e000e000  ti_sysbios_family_arm_m3_Hwi_nvic                                         
ffffffff  __TI_pprof_out_hndl                                                       
ffffffff  __TI_prof_data_size                                                       
ffffffff  __TI_prof_data_start                                                      
ffffffff  __binit__                                                                 
ffffffff  __c_args__                                                                
ffffffff  binit                                                                     
UNDEFED   HwiP_restore                                                              
UNDEFED   SHT$$INIT_ARRAY$$Base                                                     
UNDEFED   SHT$$INIT_ARRAY$$Limit                                                    
UNDEFED   ti_sysbios_BIOS_RtsGateProxy_Handle__label__S__mangled__                  
UNDEFED   ti_sysbios_BIOS_RtsGateProxy_Object__delete__S__mangled__                 
UNDEFED   ti_sysbios_BIOS_RtsGateProxy_Params__init__S__mangled__                   
UNDEFED   ti_sysbios_BIOS_RtsGateProxy_query__E__mangled__                          
UNDEFED   ti_sysbios_hal_Hwi_HwiProxy_Module__startupDone__S__mangled__             
UNDEFED   ti_sysbios_hal_Hwi_HwiProxy_Object__delete__S__mangled__                  
UNDEFED   ti_sysbios_hal_Hwi_HwiProxy_Params__init__S__mangled__                    
UNDEFED   ti_sysbios_hal_Hwi_HwiProxy_disableInterrupt__E__mangled__                
UNDEFED   ti_sysbios_hal_Hwi_HwiProxy_enableInterrupt__E__mangled__                 
UNDEFED   ti_sysbios_hal_Hwi_HwiProxy_getStackInfo__E__mangled__                    
UNDEFED   ti_sysbios_hal_Hwi_HwiProxy_startup__E__mangled__                         
UNDEFED   ti_sysbios_hal_Hwi_HwiProxy_switchFromBootStack__E__mangled__             
UNDEFED   ti_sysbios_hal_Hwi_disableInterrupt__E                                    
UNDEFED   ti_sysbios_hal_Hwi_enableInterrupt__E                                     
UNDEFED   ti_sysbios_hal_Hwi_getStackInfo__E                                        
UNDEFED   ti_sysbios_hal_Hwi_startup__E                                             
UNDEFED   ti_sysbios_hal_Hwi_switchFromBootStack__E                                 
UNDEFED   ti_sysbios_heaps_HeapMem_Module_GateProxy_Handle__label__S__mangled__     
UNDEFED   ti_sysbios_heaps_HeapMem_Module_GateProxy_Object__delete__S__mangled__    
UNDEFED   ti_sysbios_heaps_HeapMem_Module_GateProxy_Params__init__S__mangled__      
UNDEFED   ti_sysbios_heaps_HeapMem_Module_GateProxy_query__E__mangled__             
UNDEFED   ti_sysbios_knl_Clock_TimerProxy_Module__startupDone__S__mangled__         
UNDEFED   ti_sysbios_knl_Clock_TimerProxy_startup__E__mangled__                     
UNDEFED   ti_sysbios_knl_Task_SupportProxy_Module__startupDone__S__mangled__        
UNDEFED   ti_sysbios_knl_Task_SupportProxy_getStackAlignment__E__mangled__          
UNDEFED   ti_sysbios_knl_Task_SupportProxy_start__E__mangled__                      
UNDEFED   ti_sysbios_knl_Task_SupportProxy_swap__E__mangled__                       
UNDEFED   xdc_runtime_Main_Module_GateProxy_Handle__label__S                        
UNDEFED   xdc_runtime_Main_Module_GateProxy_Object__delete__S                       
UNDEFED   xdc_runtime_Main_Module_GateProxy_query__E                                
UNDEFED   xdc_runtime_Memory_HeapProxy_Handle__label__S__mangled__                  
UNDEFED   xdc_runtime_Memory_HeapProxy_Object__delete__S__mangled__                 
UNDEFED   xdc_runtime_System_Module_GateProxy_Handle__label__S__mangled__           
UNDEFED   xdc_runtime_System_Module_GateProxy_Object__delete__S__mangled__          
UNDEFED   xdc_runtime_System_Module_GateProxy_query__E__mangled__                   
UNDEFED   xdc_runtime_System_SupportProxy_abort__E                                  
UNDEFED   xdc_runtime_System_SupportProxy_exit__E                                   
UNDEFED   xdc_runtime_Timestamp_SupportProxy_get64__E__mangled__                    
UNDEFED   xdc_runtime_Timestamp_SupportProxy_getFreq__E__mangled__                  
UNDEFED   xdc_runtime_Timestamp_get32__E                                            
UNDEFED   xdc_runtime_Timestamp_get64__E                                            
UNDEFED   xdc_runtime_Timestamp_getFreq__E                                          

[1196 symbols]
